ARM GAS  C:\Users\Zbigniew\AppData\Local\Temp\ccDw50oS.s 			page 1


   1              		.cpu cortex-m3
   2              		.eabi_attribute 20, 1
   3              		.eabi_attribute 21, 1
   4              		.eabi_attribute 23, 3
   5              		.eabi_attribute 24, 1
   6              		.eabi_attribute 25, 1
   7              		.eabi_attribute 26, 1
   8              		.eabi_attribute 30, 1
   9              		.eabi_attribute 34, 1
  10              		.eabi_attribute 18, 4
  11              		.file	"gpio.c"
  12              		.text
  13              	.Ltext0:
  14              		.cfi_sections	.debug_frame
  15              		.section	.text.MX_GPIO_Init,"ax",%progbits
  16              		.align	1
  17              		.global	MX_GPIO_Init
  18              		.arch armv7-m
  19              		.syntax unified
  20              		.thumb
  21              		.thumb_func
  22              		.fpu softvfp
  24              	MX_GPIO_Init:
  25              	.LFB65:
  26              		.file 1 "Src/gpio.c"
   1:Src/gpio.c    **** /* USER CODE BEGIN Header */
   2:Src/gpio.c    **** /**
   3:Src/gpio.c    ****   ******************************************************************************
   4:Src/gpio.c    ****   * @file    gpio.c
   5:Src/gpio.c    ****   * @brief   This file provides code for the configuration
   6:Src/gpio.c    ****   *          of all used GPIO pins.
   7:Src/gpio.c    ****   ******************************************************************************
   8:Src/gpio.c    ****   * @attention
   9:Src/gpio.c    ****   *
  10:Src/gpio.c    ****   * Copyright (c) 2021 STMicroelectronics.
  11:Src/gpio.c    ****   * All rights reserved.
  12:Src/gpio.c    ****   *
  13:Src/gpio.c    ****   * This software is licensed under terms that can be found in the LICENSE file
  14:Src/gpio.c    ****   * in the root directory of this software component.
  15:Src/gpio.c    ****   * If no LICENSE file comes with this software, it is provided AS-IS.
  16:Src/gpio.c    ****   *
  17:Src/gpio.c    ****   ******************************************************************************
  18:Src/gpio.c    ****   */
  19:Src/gpio.c    **** /* USER CODE END Header */
  20:Src/gpio.c    **** 
  21:Src/gpio.c    **** /* Includes ------------------------------------------------------------------*/
  22:Src/gpio.c    **** #include "gpio.h"
  23:Src/gpio.c    **** 
  24:Src/gpio.c    **** /* USER CODE BEGIN 0 */
  25:Src/gpio.c    **** 
  26:Src/gpio.c    **** /* USER CODE END 0 */
  27:Src/gpio.c    **** 
  28:Src/gpio.c    **** /*----------------------------------------------------------------------------*/
  29:Src/gpio.c    **** /* Configure GPIO                                                             */
  30:Src/gpio.c    **** /*----------------------------------------------------------------------------*/
  31:Src/gpio.c    **** /* USER CODE BEGIN 1 */
  32:Src/gpio.c    **** 
ARM GAS  C:\Users\Zbigniew\AppData\Local\Temp\ccDw50oS.s 			page 2


  33:Src/gpio.c    **** /* USER CODE END 1 */
  34:Src/gpio.c    **** 
  35:Src/gpio.c    **** /** Configure pins as
  36:Src/gpio.c    ****         * Analog
  37:Src/gpio.c    ****         * Input
  38:Src/gpio.c    ****         * Output
  39:Src/gpio.c    ****         * EVENT_OUT
  40:Src/gpio.c    ****         * EXTI
  41:Src/gpio.c    ****         * Free pins are configured automatically as Analog (this feature is enabled through
  42:Src/gpio.c    ****         * the Code Generation settings)
  43:Src/gpio.c    **** */
  44:Src/gpio.c    **** void MX_GPIO_Init(void)
  45:Src/gpio.c    **** {
  27              		.loc 1 45 1 view -0
  28              		.cfi_startproc
  29              		@ args = 0, pretend = 0, frame = 32
  30              		@ frame_needed = 0, uses_anonymous_args = 0
  31 0000 2DE9F047 		push	{r4, r5, r6, r7, r8, r9, r10, lr}
  32              	.LCFI0:
  33              		.cfi_def_cfa_offset 32
  34              		.cfi_offset 4, -32
  35              		.cfi_offset 5, -28
  36              		.cfi_offset 6, -24
  37              		.cfi_offset 7, -20
  38              		.cfi_offset 8, -16
  39              		.cfi_offset 9, -12
  40              		.cfi_offset 10, -8
  41              		.cfi_offset 14, -4
  42 0004 88B0     		sub	sp, sp, #32
  43              	.LCFI1:
  44              		.cfi_def_cfa_offset 64
  46:Src/gpio.c    **** 
  47:Src/gpio.c    ****   GPIO_InitTypeDef GPIO_InitStruct = {0};
  45              		.loc 1 47 3 view .LVU1
  46              		.loc 1 47 20 is_stmt 0 view .LVU2
  47 0006 0024     		movs	r4, #0
  48 0008 0494     		str	r4, [sp, #16]
  49 000a 0594     		str	r4, [sp, #20]
  50 000c 0694     		str	r4, [sp, #24]
  51 000e 0794     		str	r4, [sp, #28]
  48:Src/gpio.c    **** 
  49:Src/gpio.c    ****   /* GPIO Ports Clock Enable */
  50:Src/gpio.c    ****   __HAL_RCC_GPIOC_CLK_ENABLE();
  52              		.loc 1 50 3 is_stmt 1 view .LVU3
  53              	.LBB2:
  54              		.loc 1 50 3 view .LVU4
  55              		.loc 1 50 3 view .LVU5
  56 0010 434B     		ldr	r3, .L3
  57 0012 9A69     		ldr	r2, [r3, #24]
  58 0014 42F01002 		orr	r2, r2, #16
  59 0018 9A61     		str	r2, [r3, #24]
  60              		.loc 1 50 3 view .LVU6
  61 001a 9A69     		ldr	r2, [r3, #24]
  62 001c 02F01002 		and	r2, r2, #16
  63 0020 0092     		str	r2, [sp]
  64              		.loc 1 50 3 view .LVU7
  65 0022 009A     		ldr	r2, [sp]
ARM GAS  C:\Users\Zbigniew\AppData\Local\Temp\ccDw50oS.s 			page 3


  66              	.LBE2:
  67              		.loc 1 50 3 view .LVU8
  51:Src/gpio.c    ****   __HAL_RCC_GPIOD_CLK_ENABLE();
  68              		.loc 1 51 3 view .LVU9
  69              	.LBB3:
  70              		.loc 1 51 3 view .LVU10
  71              		.loc 1 51 3 view .LVU11
  72 0024 9A69     		ldr	r2, [r3, #24]
  73 0026 42F02002 		orr	r2, r2, #32
  74 002a 9A61     		str	r2, [r3, #24]
  75              		.loc 1 51 3 view .LVU12
  76 002c 9A69     		ldr	r2, [r3, #24]
  77 002e 02F02002 		and	r2, r2, #32
  78 0032 0192     		str	r2, [sp, #4]
  79              		.loc 1 51 3 view .LVU13
  80 0034 019A     		ldr	r2, [sp, #4]
  81              	.LBE3:
  82              		.loc 1 51 3 view .LVU14
  52:Src/gpio.c    ****   __HAL_RCC_GPIOA_CLK_ENABLE();
  83              		.loc 1 52 3 view .LVU15
  84              	.LBB4:
  85              		.loc 1 52 3 view .LVU16
  86              		.loc 1 52 3 view .LVU17
  87 0036 9A69     		ldr	r2, [r3, #24]
  88 0038 42F00402 		orr	r2, r2, #4
  89 003c 9A61     		str	r2, [r3, #24]
  90              		.loc 1 52 3 view .LVU18
  91 003e 9A69     		ldr	r2, [r3, #24]
  92 0040 02F00402 		and	r2, r2, #4
  93 0044 0292     		str	r2, [sp, #8]
  94              		.loc 1 52 3 view .LVU19
  95 0046 029A     		ldr	r2, [sp, #8]
  96              	.LBE4:
  97              		.loc 1 52 3 view .LVU20
  53:Src/gpio.c    ****   __HAL_RCC_GPIOB_CLK_ENABLE();
  98              		.loc 1 53 3 view .LVU21
  99              	.LBB5:
 100              		.loc 1 53 3 view .LVU22
 101              		.loc 1 53 3 view .LVU23
 102 0048 9A69     		ldr	r2, [r3, #24]
 103 004a 42F00802 		orr	r2, r2, #8
 104 004e 9A61     		str	r2, [r3, #24]
 105              		.loc 1 53 3 view .LVU24
 106 0050 9B69     		ldr	r3, [r3, #24]
 107 0052 03F00803 		and	r3, r3, #8
 108 0056 0393     		str	r3, [sp, #12]
 109              		.loc 1 53 3 view .LVU25
 110 0058 039B     		ldr	r3, [sp, #12]
 111              	.LBE5:
 112              		.loc 1 53 3 view .LVU26
  54:Src/gpio.c    **** 
  55:Src/gpio.c    ****   /*Configure GPIO pin Output Level */
  56:Src/gpio.c    ****   HAL_GPIO_WritePin(GPIOB, GPIO_PIN_12|GPIO_PIN_14|GPIO_PIN_8|GPIO_PIN_9, GPIO_PIN_RESET);
 113              		.loc 1 56 3 view .LVU27
 114 005a DFF8C890 		ldr	r9, .L3+4
 115 005e 2246     		mov	r2, r4
 116 0060 4FF4A641 		mov	r1, #21248
ARM GAS  C:\Users\Zbigniew\AppData\Local\Temp\ccDw50oS.s 			page 4


 117 0064 4846     		mov	r0, r9
 118 0066 FFF7FEFF 		bl	HAL_GPIO_WritePin
 119              	.LVL0:
  57:Src/gpio.c    **** 
  58:Src/gpio.c    ****   /*Configure GPIO pin Output Level */
  59:Src/gpio.c    ****   HAL_GPIO_WritePin(GPIOA, GPIO_PIN_13|GPIO_PIN_15, GPIO_PIN_RESET);
 120              		.loc 1 59 3 view .LVU28
 121 006a DFF8BC80 		ldr	r8, .L3+8
 122 006e 2246     		mov	r2, r4
 123 0070 4FF42041 		mov	r1, #40960
 124 0074 4046     		mov	r0, r8
 125 0076 FFF7FEFF 		bl	HAL_GPIO_WritePin
 126              	.LVL1:
  60:Src/gpio.c    **** 
  61:Src/gpio.c    ****   /*Configure GPIO pin Output Level */
  62:Src/gpio.c    ****   HAL_GPIO_WritePin(GPIOC, GPIO_PIN_10|GPIO_PIN_12, GPIO_PIN_RESET);
 127              		.loc 1 62 3 view .LVU29
 128 007a 2C4F     		ldr	r7, .L3+12
 129 007c 2246     		mov	r2, r4
 130 007e 4FF4A051 		mov	r1, #5120
 131 0082 3846     		mov	r0, r7
 132 0084 FFF7FEFF 		bl	HAL_GPIO_WritePin
 133              	.LVL2:
  63:Src/gpio.c    **** 
  64:Src/gpio.c    ****   /*Configure GPIO pin Output Level */
  65:Src/gpio.c    ****   HAL_GPIO_WritePin(GPIOD, GPIO_PIN_2, GPIO_PIN_RESET);
 134              		.loc 1 65 3 view .LVU30
 135 0088 DFF8A4A0 		ldr	r10, .L3+16
 136 008c 2246     		mov	r2, r4
 137 008e 0421     		movs	r1, #4
 138 0090 5046     		mov	r0, r10
 139 0092 FFF7FEFF 		bl	HAL_GPIO_WritePin
 140              	.LVL3:
  66:Src/gpio.c    **** 
  67:Src/gpio.c    ****   /*Configure GPIO pins : PC13 PC0 PC1 PC2
  68:Src/gpio.c    ****                            PC3 PC4 PC5 PC6
  69:Src/gpio.c    ****                            PC7 PC8 PC9 PC11 */
  70:Src/gpio.c    ****   GPIO_InitStruct.Pin = GPIO_PIN_13|GPIO_PIN_0|GPIO_PIN_1|GPIO_PIN_2
 141              		.loc 1 70 3 view .LVU31
 142              		.loc 1 70 23 is_stmt 0 view .LVU32
 143 0096 42F6FF33 		movw	r3, #11263
 144 009a 0493     		str	r3, [sp, #16]
  71:Src/gpio.c    ****                           |GPIO_PIN_3|GPIO_PIN_4|GPIO_PIN_5|GPIO_PIN_6
  72:Src/gpio.c    ****                           |GPIO_PIN_7|GPIO_PIN_8|GPIO_PIN_9|GPIO_PIN_11;
  73:Src/gpio.c    ****   GPIO_InitStruct.Mode = GPIO_MODE_ANALOG;
 145              		.loc 1 73 3 is_stmt 1 view .LVU33
 146              		.loc 1 73 24 is_stmt 0 view .LVU34
 147 009c 0325     		movs	r5, #3
 148 009e 0595     		str	r5, [sp, #20]
  74:Src/gpio.c    ****   HAL_GPIO_Init(GPIOC, &GPIO_InitStruct);
 149              		.loc 1 74 3 is_stmt 1 view .LVU35
 150 00a0 04A9     		add	r1, sp, #16
 151 00a2 3846     		mov	r0, r7
 152 00a4 FFF7FEFF 		bl	HAL_GPIO_Init
 153              	.LVL4:
  75:Src/gpio.c    **** 
  76:Src/gpio.c    ****   /*Configure GPIO pins : PA0 PA1 PA4 PA5
ARM GAS  C:\Users\Zbigniew\AppData\Local\Temp\ccDw50oS.s 			page 5


  77:Src/gpio.c    ****                            PA8 PA14 */
  78:Src/gpio.c    ****   GPIO_InitStruct.Pin = GPIO_PIN_0|GPIO_PIN_1|GPIO_PIN_4|GPIO_PIN_5
 154              		.loc 1 78 3 view .LVU36
 155              		.loc 1 78 23 is_stmt 0 view .LVU37
 156 00a8 44F23313 		movw	r3, #16691
 157 00ac 0493     		str	r3, [sp, #16]
  79:Src/gpio.c    ****                           |GPIO_PIN_8|GPIO_PIN_14;
  80:Src/gpio.c    ****   GPIO_InitStruct.Mode = GPIO_MODE_ANALOG;
 158              		.loc 1 80 3 is_stmt 1 view .LVU38
 159              		.loc 1 80 24 is_stmt 0 view .LVU39
 160 00ae 0595     		str	r5, [sp, #20]
  81:Src/gpio.c    ****   HAL_GPIO_Init(GPIOA, &GPIO_InitStruct);
 161              		.loc 1 81 3 is_stmt 1 view .LVU40
 162 00b0 04A9     		add	r1, sp, #16
 163 00b2 4046     		mov	r0, r8
 164 00b4 FFF7FEFF 		bl	HAL_GPIO_Init
 165              	.LVL5:
  82:Src/gpio.c    **** 
  83:Src/gpio.c    ****   /*Configure GPIO pins : PB1 PB2 PB10 PB11
  84:Src/gpio.c    ****                            PB4 */
  85:Src/gpio.c    ****   GPIO_InitStruct.Pin = GPIO_PIN_1|GPIO_PIN_2|GPIO_PIN_10|GPIO_PIN_11
 166              		.loc 1 85 3 view .LVU41
 167              		.loc 1 85 23 is_stmt 0 view .LVU42
 168 00b8 40F61643 		movw	r3, #3094
 169 00bc 0493     		str	r3, [sp, #16]
  86:Src/gpio.c    ****                           |GPIO_PIN_4;
  87:Src/gpio.c    ****   GPIO_InitStruct.Mode = GPIO_MODE_ANALOG;
 170              		.loc 1 87 3 is_stmt 1 view .LVU43
 171              		.loc 1 87 24 is_stmt 0 view .LVU44
 172 00be 0595     		str	r5, [sp, #20]
  88:Src/gpio.c    ****   HAL_GPIO_Init(GPIOB, &GPIO_InitStruct);
 173              		.loc 1 88 3 is_stmt 1 view .LVU45
 174 00c0 04A9     		add	r1, sp, #16
 175 00c2 4846     		mov	r0, r9
 176 00c4 FFF7FEFF 		bl	HAL_GPIO_Init
 177              	.LVL6:
  89:Src/gpio.c    **** 
  90:Src/gpio.c    ****   /*Configure GPIO pins : PB12 PB14 PB8 PB9 */
  91:Src/gpio.c    ****   GPIO_InitStruct.Pin = GPIO_PIN_12|GPIO_PIN_14|GPIO_PIN_8|GPIO_PIN_9;
 178              		.loc 1 91 3 view .LVU46
 179              		.loc 1 91 23 is_stmt 0 view .LVU47
 180 00c8 4FF4A643 		mov	r3, #21248
 181 00cc 0493     		str	r3, [sp, #16]
  92:Src/gpio.c    ****   GPIO_InitStruct.Mode = GPIO_MODE_OUTPUT_PP;
 182              		.loc 1 92 3 is_stmt 1 view .LVU48
 183              		.loc 1 92 24 is_stmt 0 view .LVU49
 184 00ce 0126     		movs	r6, #1
 185 00d0 0596     		str	r6, [sp, #20]
  93:Src/gpio.c    ****   GPIO_InitStruct.Pull = GPIO_NOPULL;
 186              		.loc 1 93 3 is_stmt 1 view .LVU50
 187              		.loc 1 93 24 is_stmt 0 view .LVU51
 188 00d2 0694     		str	r4, [sp, #24]
  94:Src/gpio.c    ****   GPIO_InitStruct.Speed = GPIO_SPEED_FREQ_LOW;
 189              		.loc 1 94 3 is_stmt 1 view .LVU52
 190              		.loc 1 94 25 is_stmt 0 view .LVU53
 191 00d4 0225     		movs	r5, #2
 192 00d6 0795     		str	r5, [sp, #28]
ARM GAS  C:\Users\Zbigniew\AppData\Local\Temp\ccDw50oS.s 			page 6


  95:Src/gpio.c    ****   HAL_GPIO_Init(GPIOB, &GPIO_InitStruct);
 193              		.loc 1 95 3 is_stmt 1 view .LVU54
 194 00d8 04A9     		add	r1, sp, #16
 195 00da 4846     		mov	r0, r9
 196 00dc FFF7FEFF 		bl	HAL_GPIO_Init
 197              	.LVL7:
  96:Src/gpio.c    **** 
  97:Src/gpio.c    ****   /*Configure GPIO pins : PA13 PA15 */
  98:Src/gpio.c    ****   GPIO_InitStruct.Pin = GPIO_PIN_13|GPIO_PIN_15;
 198              		.loc 1 98 3 view .LVU55
 199              		.loc 1 98 23 is_stmt 0 view .LVU56
 200 00e0 4FF42043 		mov	r3, #40960
 201 00e4 0493     		str	r3, [sp, #16]
  99:Src/gpio.c    ****   GPIO_InitStruct.Mode = GPIO_MODE_OUTPUT_PP;
 202              		.loc 1 99 3 is_stmt 1 view .LVU57
 203              		.loc 1 99 24 is_stmt 0 view .LVU58
 204 00e6 0596     		str	r6, [sp, #20]
 100:Src/gpio.c    ****   GPIO_InitStruct.Pull = GPIO_NOPULL;
 205              		.loc 1 100 3 is_stmt 1 view .LVU59
 206              		.loc 1 100 24 is_stmt 0 view .LVU60
 207 00e8 0694     		str	r4, [sp, #24]
 101:Src/gpio.c    ****   GPIO_InitStruct.Speed = GPIO_SPEED_FREQ_LOW;
 208              		.loc 1 101 3 is_stmt 1 view .LVU61
 209              		.loc 1 101 25 is_stmt 0 view .LVU62
 210 00ea 0795     		str	r5, [sp, #28]
 102:Src/gpio.c    ****   HAL_GPIO_Init(GPIOA, &GPIO_InitStruct);
 211              		.loc 1 102 3 is_stmt 1 view .LVU63
 212 00ec 04A9     		add	r1, sp, #16
 213 00ee 4046     		mov	r0, r8
 214 00f0 FFF7FEFF 		bl	HAL_GPIO_Init
 215              	.LVL8:
 103:Src/gpio.c    **** 
 104:Src/gpio.c    ****   /*Configure GPIO pins : PC10 PC12 */
 105:Src/gpio.c    ****   GPIO_InitStruct.Pin = GPIO_PIN_10|GPIO_PIN_12;
 216              		.loc 1 105 3 view .LVU64
 217              		.loc 1 105 23 is_stmt 0 view .LVU65
 218 00f4 4FF4A053 		mov	r3, #5120
 219 00f8 0493     		str	r3, [sp, #16]
 106:Src/gpio.c    ****   GPIO_InitStruct.Mode = GPIO_MODE_OUTPUT_PP;
 220              		.loc 1 106 3 is_stmt 1 view .LVU66
 221              		.loc 1 106 24 is_stmt 0 view .LVU67
 222 00fa 0596     		str	r6, [sp, #20]
 107:Src/gpio.c    ****   GPIO_InitStruct.Pull = GPIO_NOPULL;
 223              		.loc 1 107 3 is_stmt 1 view .LVU68
 224              		.loc 1 107 24 is_stmt 0 view .LVU69
 225 00fc 0694     		str	r4, [sp, #24]
 108:Src/gpio.c    ****   GPIO_InitStruct.Speed = GPIO_SPEED_FREQ_LOW;
 226              		.loc 1 108 3 is_stmt 1 view .LVU70
 227              		.loc 1 108 25 is_stmt 0 view .LVU71
 228 00fe 0795     		str	r5, [sp, #28]
 109:Src/gpio.c    ****   HAL_GPIO_Init(GPIOC, &GPIO_InitStruct);
 229              		.loc 1 109 3 is_stmt 1 view .LVU72
 230 0100 04A9     		add	r1, sp, #16
 231 0102 3846     		mov	r0, r7
 232 0104 FFF7FEFF 		bl	HAL_GPIO_Init
 233              	.LVL9:
 110:Src/gpio.c    **** 
ARM GAS  C:\Users\Zbigniew\AppData\Local\Temp\ccDw50oS.s 			page 7


 111:Src/gpio.c    ****   /*Configure GPIO pin : PD2 */
 112:Src/gpio.c    ****   GPIO_InitStruct.Pin = GPIO_PIN_2;
 234              		.loc 1 112 3 view .LVU73
 235              		.loc 1 112 23 is_stmt 0 view .LVU74
 236 0108 0423     		movs	r3, #4
 237 010a 0493     		str	r3, [sp, #16]
 113:Src/gpio.c    ****   GPIO_InitStruct.Mode = GPIO_MODE_OUTPUT_PP;
 238              		.loc 1 113 3 is_stmt 1 view .LVU75
 239              		.loc 1 113 24 is_stmt 0 view .LVU76
 240 010c 0596     		str	r6, [sp, #20]
 114:Src/gpio.c    ****   GPIO_InitStruct.Pull = GPIO_NOPULL;
 241              		.loc 1 114 3 is_stmt 1 view .LVU77
 242              		.loc 1 114 24 is_stmt 0 view .LVU78
 243 010e 0694     		str	r4, [sp, #24]
 115:Src/gpio.c    ****   GPIO_InitStruct.Speed = GPIO_SPEED_FREQ_LOW;
 244              		.loc 1 115 3 is_stmt 1 view .LVU79
 245              		.loc 1 115 25 is_stmt 0 view .LVU80
 246 0110 0795     		str	r5, [sp, #28]
 116:Src/gpio.c    ****   HAL_GPIO_Init(GPIOD, &GPIO_InitStruct);
 247              		.loc 1 116 3 is_stmt 1 view .LVU81
 248 0112 04A9     		add	r1, sp, #16
 249 0114 5046     		mov	r0, r10
 250 0116 FFF7FEFF 		bl	HAL_GPIO_Init
 251              	.LVL10:
 117:Src/gpio.c    **** 
 118:Src/gpio.c    **** }
 252              		.loc 1 118 1 is_stmt 0 view .LVU82
 253 011a 08B0     		add	sp, sp, #32
 254              	.LCFI2:
 255              		.cfi_def_cfa_offset 32
 256              		@ sp needed
 257 011c BDE8F087 		pop	{r4, r5, r6, r7, r8, r9, r10, pc}
 258              	.L4:
 259              		.align	2
 260              	.L3:
 261 0120 00100240 		.word	1073876992
 262 0124 000C0140 		.word	1073810432
 263 0128 00080140 		.word	1073809408
 264 012c 00100140 		.word	1073811456
 265 0130 00140140 		.word	1073812480
 266              		.cfi_endproc
 267              	.LFE65:
 269              		.text
 270              	.Letext0:
 271              		.file 2 "g:\\msys\\mingw64\\arm-none-eabi\\include\\machine\\_default_types.h"
 272              		.file 3 "g:\\msys\\mingw64\\arm-none-eabi\\include\\sys\\_stdint.h"
 273              		.file 4 "Drivers/CMSIS/Device/ST/STM32F1xx/Include/stm32f103xe.h"
 274              		.file 5 "Drivers/STM32F1xx_HAL_Driver/Inc/stm32f1xx_hal_gpio.h"
ARM GAS  C:\Users\Zbigniew\AppData\Local\Temp\ccDw50oS.s 			page 8

