ARM GAS  C:\Users\Zbigniew\AppData\Local\Temp\ccQAmVce.s 			page 1


   1              		.cpu cortex-m3
   2              		.arch armv7-m
   3              		.fpu softvfp
   4              		.eabi_attribute 20, 1
   5              		.eabi_attribute 21, 1
   6              		.eabi_attribute 23, 3
   7              		.eabi_attribute 24, 1
   8              		.eabi_attribute 25, 1
   9              		.eabi_attribute 26, 1
  10              		.eabi_attribute 30, 1
  11              		.eabi_attribute 34, 1
  12              		.eabi_attribute 18, 4
  13              		.file	"spi.c"
  14              		.text
  15              	.Ltext0:
  16              		.cfi_sections	.debug_frame
  17              		.section	.text.MX_SPI2_Init,"ax",%progbits
  18              		.align	1
  19              		.global	MX_SPI2_Init
  20              		.syntax unified
  21              		.thumb
  22              		.thumb_func
  24              	MX_SPI2_Init:
  25              	.LFB65:
  26              		.file 1 "Src/spi.c"
   1:Src/spi.c     **** /**
   2:Src/spi.c     ****   ******************************************************************************
   3:Src/spi.c     ****   * @file    spi.c
   4:Src/spi.c     ****   * @brief   This file provides code for the configuration
   5:Src/spi.c     ****   *          of the SPI instances.
   6:Src/spi.c     ****   ******************************************************************************
   7:Src/spi.c     ****   * @attention
   8:Src/spi.c     ****   *
   9:Src/spi.c     ****   * <h2><center>&copy; Copyright (c) 2021 STMicroelectronics.
  10:Src/spi.c     ****   * All rights reserved.</center></h2>
  11:Src/spi.c     ****   *
  12:Src/spi.c     ****   * This software component is licensed by ST under BSD 3-Clause license,
  13:Src/spi.c     ****   * the "License"; You may not use this file except in compliance with the
  14:Src/spi.c     ****   * License. You may obtain a copy of the License at:
  15:Src/spi.c     ****   *                        opensource.org/licenses/BSD-3-Clause
  16:Src/spi.c     ****   *
  17:Src/spi.c     ****   ******************************************************************************
  18:Src/spi.c     ****   */
  19:Src/spi.c     **** 
  20:Src/spi.c     **** /* Includes ------------------------------------------------------------------*/
  21:Src/spi.c     **** #include "spi.h"
  22:Src/spi.c     **** 
  23:Src/spi.c     **** /* USER CODE BEGIN 0 */
  24:Src/spi.c     **** 
  25:Src/spi.c     **** /* USER CODE END 0 */
  26:Src/spi.c     **** 
  27:Src/spi.c     **** SPI_HandleTypeDef hspi2;
  28:Src/spi.c     **** SPI_HandleTypeDef hspi3;
  29:Src/spi.c     **** 
  30:Src/spi.c     **** /* SPI2 init function */
  31:Src/spi.c     **** void MX_SPI2_Init(void)
  32:Src/spi.c     **** {
ARM GAS  C:\Users\Zbigniew\AppData\Local\Temp\ccQAmVce.s 			page 2


  27              		.loc 1 32 1 view -0
  28              		.cfi_startproc
  29              		@ args = 0, pretend = 0, frame = 0
  30              		@ frame_needed = 0, uses_anonymous_args = 0
  31 0000 08B5     		push	{r3, lr}
  32              	.LCFI0:
  33              		.cfi_def_cfa_offset 8
  34              		.cfi_offset 3, -8
  35              		.cfi_offset 14, -4
  33:Src/spi.c     **** 
  34:Src/spi.c     ****   /* USER CODE BEGIN SPI2_Init 0 */
  35:Src/spi.c     **** 
  36:Src/spi.c     ****   /* USER CODE END SPI2_Init 0 */
  37:Src/spi.c     **** 
  38:Src/spi.c     ****   /* USER CODE BEGIN SPI2_Init 1 */
  39:Src/spi.c     **** 
  40:Src/spi.c     ****   /* USER CODE END SPI2_Init 1 */
  41:Src/spi.c     ****   hspi2.Instance = SPI2;
  36              		.loc 1 41 3 view .LVU1
  37              		.loc 1 41 18 is_stmt 0 view .LVU2
  38 0002 0E48     		ldr	r0, .L5
  39 0004 0E4B     		ldr	r3, .L5+4
  40 0006 0360     		str	r3, [r0]
  42:Src/spi.c     ****   hspi2.Init.Mode = SPI_MODE_MASTER;
  41              		.loc 1 42 3 is_stmt 1 view .LVU3
  42              		.loc 1 42 19 is_stmt 0 view .LVU4
  43 0008 4FF48273 		mov	r3, #260
  44 000c 4360     		str	r3, [r0, #4]
  43:Src/spi.c     ****   hspi2.Init.Direction = SPI_DIRECTION_2LINES;
  45              		.loc 1 43 3 is_stmt 1 view .LVU5
  46              		.loc 1 43 24 is_stmt 0 view .LVU6
  47 000e 0023     		movs	r3, #0
  48 0010 8360     		str	r3, [r0, #8]
  44:Src/spi.c     ****   hspi2.Init.DataSize = SPI_DATASIZE_8BIT;
  49              		.loc 1 44 3 is_stmt 1 view .LVU7
  50              		.loc 1 44 23 is_stmt 0 view .LVU8
  51 0012 C360     		str	r3, [r0, #12]
  45:Src/spi.c     ****   hspi2.Init.CLKPolarity = SPI_POLARITY_LOW;
  52              		.loc 1 45 3 is_stmt 1 view .LVU9
  53              		.loc 1 45 26 is_stmt 0 view .LVU10
  54 0014 0361     		str	r3, [r0, #16]
  46:Src/spi.c     ****   hspi2.Init.CLKPhase = SPI_PHASE_1EDGE;
  55              		.loc 1 46 3 is_stmt 1 view .LVU11
  56              		.loc 1 46 23 is_stmt 0 view .LVU12
  57 0016 4361     		str	r3, [r0, #20]
  47:Src/spi.c     ****   hspi2.Init.NSS = SPI_NSS_SOFT;
  58              		.loc 1 47 3 is_stmt 1 view .LVU13
  59              		.loc 1 47 18 is_stmt 0 view .LVU14
  60 0018 4FF40072 		mov	r2, #512
  61 001c 8261     		str	r2, [r0, #24]
  48:Src/spi.c     ****   hspi2.Init.BaudRatePrescaler = SPI_BAUDRATEPRESCALER_16;
  62              		.loc 1 48 3 is_stmt 1 view .LVU15
  63              		.loc 1 48 32 is_stmt 0 view .LVU16
  64 001e 1822     		movs	r2, #24
  65 0020 C261     		str	r2, [r0, #28]
  49:Src/spi.c     ****   hspi2.Init.FirstBit = SPI_FIRSTBIT_LSB;
  66              		.loc 1 49 3 is_stmt 1 view .LVU17
ARM GAS  C:\Users\Zbigniew\AppData\Local\Temp\ccQAmVce.s 			page 3


  67              		.loc 1 49 23 is_stmt 0 view .LVU18
  68 0022 8022     		movs	r2, #128
  69 0024 0262     		str	r2, [r0, #32]
  50:Src/spi.c     ****   hspi2.Init.TIMode = SPI_TIMODE_DISABLE;
  70              		.loc 1 50 3 is_stmt 1 view .LVU19
  71              		.loc 1 50 21 is_stmt 0 view .LVU20
  72 0026 4362     		str	r3, [r0, #36]
  51:Src/spi.c     ****   hspi2.Init.CRCCalculation = SPI_CRCCALCULATION_DISABLE;
  73              		.loc 1 51 3 is_stmt 1 view .LVU21
  74              		.loc 1 51 29 is_stmt 0 view .LVU22
  75 0028 8362     		str	r3, [r0, #40]
  52:Src/spi.c     ****   hspi2.Init.CRCPolynomial = 10;
  76              		.loc 1 52 3 is_stmt 1 view .LVU23
  77              		.loc 1 52 28 is_stmt 0 view .LVU24
  78 002a 0A23     		movs	r3, #10
  79 002c C362     		str	r3, [r0, #44]
  53:Src/spi.c     ****   if (HAL_SPI_Init(&hspi2) != HAL_OK)
  80              		.loc 1 53 3 is_stmt 1 view .LVU25
  81              		.loc 1 53 7 is_stmt 0 view .LVU26
  82 002e FFF7FEFF 		bl	HAL_SPI_Init
  83              	.LVL0:
  84              		.loc 1 53 6 view .LVU27
  85 0032 00B9     		cbnz	r0, .L4
  86              	.L1:
  54:Src/spi.c     ****   {
  55:Src/spi.c     ****     Error_Handler();
  56:Src/spi.c     ****   }
  57:Src/spi.c     ****   /* USER CODE BEGIN SPI2_Init 2 */
  58:Src/spi.c     **** 
  59:Src/spi.c     ****   /* USER CODE END SPI2_Init 2 */
  60:Src/spi.c     **** 
  61:Src/spi.c     **** }
  87              		.loc 1 61 1 view .LVU28
  88 0034 08BD     		pop	{r3, pc}
  89              	.L4:
  55:Src/spi.c     ****   }
  90              		.loc 1 55 5 is_stmt 1 view .LVU29
  91 0036 FFF7FEFF 		bl	Error_Handler
  92              	.LVL1:
  93              		.loc 1 61 1 is_stmt 0 view .LVU30
  94 003a FBE7     		b	.L1
  95              	.L6:
  96              		.align	2
  97              	.L5:
  98 003c 00000000 		.word	.LANCHOR0
  99 0040 00380040 		.word	1073756160
 100              		.cfi_endproc
 101              	.LFE65:
 103              		.section	.text.MX_SPI3_Init,"ax",%progbits
 104              		.align	1
 105              		.global	MX_SPI3_Init
 106              		.syntax unified
 107              		.thumb
 108              		.thumb_func
 110              	MX_SPI3_Init:
 111              	.LFB66:
  62:Src/spi.c     **** /* SPI3 init function */
ARM GAS  C:\Users\Zbigniew\AppData\Local\Temp\ccQAmVce.s 			page 4


  63:Src/spi.c     **** void MX_SPI3_Init(void)
  64:Src/spi.c     **** {
 112              		.loc 1 64 1 is_stmt 1 view -0
 113              		.cfi_startproc
 114              		@ args = 0, pretend = 0, frame = 0
 115              		@ frame_needed = 0, uses_anonymous_args = 0
 116 0000 08B5     		push	{r3, lr}
 117              	.LCFI1:
 118              		.cfi_def_cfa_offset 8
 119              		.cfi_offset 3, -8
 120              		.cfi_offset 14, -4
  65:Src/spi.c     **** 
  66:Src/spi.c     ****   /* USER CODE BEGIN SPI3_Init 0 */
  67:Src/spi.c     **** 
  68:Src/spi.c     ****   /* USER CODE END SPI3_Init 0 */
  69:Src/spi.c     **** 
  70:Src/spi.c     ****   /* USER CODE BEGIN SPI3_Init 1 */
  71:Src/spi.c     **** 
  72:Src/spi.c     ****   /* USER CODE END SPI3_Init 1 */
  73:Src/spi.c     ****   hspi3.Instance = SPI3;
 121              		.loc 1 73 3 view .LVU32
 122              		.loc 1 73 18 is_stmt 0 view .LVU33
 123 0002 0E48     		ldr	r0, .L11
 124 0004 0E4B     		ldr	r3, .L11+4
 125 0006 0360     		str	r3, [r0]
  74:Src/spi.c     ****   hspi3.Init.Mode = SPI_MODE_MASTER;
 126              		.loc 1 74 3 is_stmt 1 view .LVU34
 127              		.loc 1 74 19 is_stmt 0 view .LVU35
 128 0008 4FF48273 		mov	r3, #260
 129 000c 4360     		str	r3, [r0, #4]
  75:Src/spi.c     ****   hspi3.Init.Direction = SPI_DIRECTION_2LINES;
 130              		.loc 1 75 3 is_stmt 1 view .LVU36
 131              		.loc 1 75 24 is_stmt 0 view .LVU37
 132 000e 0023     		movs	r3, #0
 133 0010 8360     		str	r3, [r0, #8]
  76:Src/spi.c     ****   hspi3.Init.DataSize = SPI_DATASIZE_8BIT;
 134              		.loc 1 76 3 is_stmt 1 view .LVU38
 135              		.loc 1 76 23 is_stmt 0 view .LVU39
 136 0012 C360     		str	r3, [r0, #12]
  77:Src/spi.c     ****   hspi3.Init.CLKPolarity = SPI_POLARITY_LOW;
 137              		.loc 1 77 3 is_stmt 1 view .LVU40
 138              		.loc 1 77 26 is_stmt 0 view .LVU41
 139 0014 0361     		str	r3, [r0, #16]
  78:Src/spi.c     ****   hspi3.Init.CLKPhase = SPI_PHASE_1EDGE;
 140              		.loc 1 78 3 is_stmt 1 view .LVU42
 141              		.loc 1 78 23 is_stmt 0 view .LVU43
 142 0016 4361     		str	r3, [r0, #20]
  79:Src/spi.c     ****   hspi3.Init.NSS = SPI_NSS_SOFT;
 143              		.loc 1 79 3 is_stmt 1 view .LVU44
 144              		.loc 1 79 18 is_stmt 0 view .LVU45
 145 0018 4FF40072 		mov	r2, #512
 146 001c 8261     		str	r2, [r0, #24]
  80:Src/spi.c     ****   hspi3.Init.BaudRatePrescaler = SPI_BAUDRATEPRESCALER_4;
 147              		.loc 1 80 3 is_stmt 1 view .LVU46
 148              		.loc 1 80 32 is_stmt 0 view .LVU47
 149 001e 0822     		movs	r2, #8
 150 0020 C261     		str	r2, [r0, #28]
ARM GAS  C:\Users\Zbigniew\AppData\Local\Temp\ccQAmVce.s 			page 5


  81:Src/spi.c     ****   hspi3.Init.FirstBit = SPI_FIRSTBIT_MSB;
 151              		.loc 1 81 3 is_stmt 1 view .LVU48
 152              		.loc 1 81 23 is_stmt 0 view .LVU49
 153 0022 0362     		str	r3, [r0, #32]
  82:Src/spi.c     ****   hspi3.Init.TIMode = SPI_TIMODE_DISABLE;
 154              		.loc 1 82 3 is_stmt 1 view .LVU50
 155              		.loc 1 82 21 is_stmt 0 view .LVU51
 156 0024 4362     		str	r3, [r0, #36]
  83:Src/spi.c     ****   hspi3.Init.CRCCalculation = SPI_CRCCALCULATION_DISABLE;
 157              		.loc 1 83 3 is_stmt 1 view .LVU52
 158              		.loc 1 83 29 is_stmt 0 view .LVU53
 159 0026 8362     		str	r3, [r0, #40]
  84:Src/spi.c     ****   hspi3.Init.CRCPolynomial = 10;
 160              		.loc 1 84 3 is_stmt 1 view .LVU54
 161              		.loc 1 84 28 is_stmt 0 view .LVU55
 162 0028 0A23     		movs	r3, #10
 163 002a C362     		str	r3, [r0, #44]
  85:Src/spi.c     ****   if (HAL_SPI_Init(&hspi3) != HAL_OK)
 164              		.loc 1 85 3 is_stmt 1 view .LVU56
 165              		.loc 1 85 7 is_stmt 0 view .LVU57
 166 002c FFF7FEFF 		bl	HAL_SPI_Init
 167              	.LVL2:
 168              		.loc 1 85 6 view .LVU58
 169 0030 00B9     		cbnz	r0, .L10
 170              	.L7:
  86:Src/spi.c     ****   {
  87:Src/spi.c     ****     Error_Handler();
  88:Src/spi.c     ****   }
  89:Src/spi.c     ****   /* USER CODE BEGIN SPI3_Init 2 */
  90:Src/spi.c     **** 
  91:Src/spi.c     ****   /* USER CODE END SPI3_Init 2 */
  92:Src/spi.c     **** 
  93:Src/spi.c     **** }
 171              		.loc 1 93 1 view .LVU59
 172 0032 08BD     		pop	{r3, pc}
 173              	.L10:
  87:Src/spi.c     ****   }
 174              		.loc 1 87 5 is_stmt 1 view .LVU60
 175 0034 FFF7FEFF 		bl	Error_Handler
 176              	.LVL3:
 177              		.loc 1 93 1 is_stmt 0 view .LVU61
 178 0038 FBE7     		b	.L7
 179              	.L12:
 180 003a 00BF     		.align	2
 181              	.L11:
 182 003c 00000000 		.word	.LANCHOR1
 183 0040 003C0040 		.word	1073757184
 184              		.cfi_endproc
 185              	.LFE66:
 187              		.section	.text.HAL_SPI_MspInit,"ax",%progbits
 188              		.align	1
 189              		.global	HAL_SPI_MspInit
 190              		.syntax unified
 191              		.thumb
 192              		.thumb_func
 194              	HAL_SPI_MspInit:
 195              	.LVL4:
ARM GAS  C:\Users\Zbigniew\AppData\Local\Temp\ccQAmVce.s 			page 6


 196              	.LFB67:
  94:Src/spi.c     **** 
  95:Src/spi.c     **** void HAL_SPI_MspInit(SPI_HandleTypeDef* spiHandle)
  96:Src/spi.c     **** {
 197              		.loc 1 96 1 is_stmt 1 view -0
 198              		.cfi_startproc
 199              		@ args = 0, pretend = 0, frame = 32
 200              		@ frame_needed = 0, uses_anonymous_args = 0
 201              		.loc 1 96 1 is_stmt 0 view .LVU63
 202 0000 00B5     		push	{lr}
 203              	.LCFI2:
 204              		.cfi_def_cfa_offset 4
 205              		.cfi_offset 14, -4
 206 0002 89B0     		sub	sp, sp, #36
 207              	.LCFI3:
 208              		.cfi_def_cfa_offset 40
  97:Src/spi.c     **** 
  98:Src/spi.c     ****   GPIO_InitTypeDef GPIO_InitStruct = {0};
 209              		.loc 1 98 3 is_stmt 1 view .LVU64
 210              		.loc 1 98 20 is_stmt 0 view .LVU65
 211 0004 0023     		movs	r3, #0
 212 0006 0493     		str	r3, [sp, #16]
 213 0008 0593     		str	r3, [sp, #20]
 214 000a 0693     		str	r3, [sp, #24]
 215 000c 0793     		str	r3, [sp, #28]
  99:Src/spi.c     ****   if(spiHandle->Instance==SPI2)
 216              		.loc 1 99 3 is_stmt 1 view .LVU66
 217              		.loc 1 99 15 is_stmt 0 view .LVU67
 218 000e 0368     		ldr	r3, [r0]
 219              		.loc 1 99 5 view .LVU68
 220 0010 224A     		ldr	r2, .L19
 221 0012 9342     		cmp	r3, r2
 222 0014 05D0     		beq	.L17
 100:Src/spi.c     ****   {
 101:Src/spi.c     ****   /* USER CODE BEGIN SPI2_MspInit 0 */
 102:Src/spi.c     **** 
 103:Src/spi.c     ****   /* USER CODE END SPI2_MspInit 0 */
 104:Src/spi.c     ****     /* SPI2 clock enable */
 105:Src/spi.c     ****     __HAL_RCC_SPI2_CLK_ENABLE();
 106:Src/spi.c     **** 
 107:Src/spi.c     ****     __HAL_RCC_GPIOB_CLK_ENABLE();
 108:Src/spi.c     ****     /**SPI2 GPIO Configuration
 109:Src/spi.c     ****     PB13     ------> SPI2_SCK
 110:Src/spi.c     ****     PB15     ------> SPI2_MOSI
 111:Src/spi.c     ****     */
 112:Src/spi.c     ****     GPIO_InitStruct.Pin = GPIO_PIN_13|GPIO_PIN_15;
 113:Src/spi.c     ****     GPIO_InitStruct.Mode = GPIO_MODE_AF_PP;
 114:Src/spi.c     ****     GPIO_InitStruct.Speed = GPIO_SPEED_FREQ_HIGH;
 115:Src/spi.c     ****     HAL_GPIO_Init(GPIOB, &GPIO_InitStruct);
 116:Src/spi.c     **** 
 117:Src/spi.c     ****   /* USER CODE BEGIN SPI2_MspInit 1 */
 118:Src/spi.c     **** 
 119:Src/spi.c     ****   /* USER CODE END SPI2_MspInit 1 */
 120:Src/spi.c     ****   }
 121:Src/spi.c     ****   else if(spiHandle->Instance==SPI3)
 223              		.loc 1 121 8 is_stmt 1 view .LVU69
 224              		.loc 1 121 10 is_stmt 0 view .LVU70
ARM GAS  C:\Users\Zbigniew\AppData\Local\Temp\ccQAmVce.s 			page 7


 225 0016 224A     		ldr	r2, .L19+4
 226 0018 9342     		cmp	r3, r2
 227 001a 21D0     		beq	.L18
 228              	.LVL5:
 229              	.L13:
 122:Src/spi.c     ****   {
 123:Src/spi.c     ****   /* USER CODE BEGIN SPI3_MspInit 0 */
 124:Src/spi.c     **** 
 125:Src/spi.c     ****   /* USER CODE END SPI3_MspInit 0 */
 126:Src/spi.c     ****     /* SPI3 clock enable */
 127:Src/spi.c     ****     __HAL_RCC_SPI3_CLK_ENABLE();
 128:Src/spi.c     **** 
 129:Src/spi.c     ****     __HAL_RCC_GPIOB_CLK_ENABLE();
 130:Src/spi.c     ****     /**SPI3 GPIO Configuration
 131:Src/spi.c     ****     PB3     ------> SPI3_SCK
 132:Src/spi.c     ****     PB5     ------> SPI3_MOSI
 133:Src/spi.c     ****     */
 134:Src/spi.c     ****     GPIO_InitStruct.Pin = GPIO_PIN_3|GPIO_PIN_5;
 135:Src/spi.c     ****     GPIO_InitStruct.Mode = GPIO_MODE_AF_PP;
 136:Src/spi.c     ****     GPIO_InitStruct.Speed = GPIO_SPEED_FREQ_HIGH;
 137:Src/spi.c     ****     HAL_GPIO_Init(GPIOB, &GPIO_InitStruct);
 138:Src/spi.c     **** 
 139:Src/spi.c     ****   /* USER CODE BEGIN SPI3_MspInit 1 */
 140:Src/spi.c     **** 
 141:Src/spi.c     ****   /* USER CODE END SPI3_MspInit 1 */
 142:Src/spi.c     ****   }
 143:Src/spi.c     **** }
 230              		.loc 1 143 1 view .LVU71
 231 001c 09B0     		add	sp, sp, #36
 232              	.LCFI4:
 233              		.cfi_remember_state
 234              		.cfi_def_cfa_offset 4
 235              		@ sp needed
 236 001e 5DF804FB 		ldr	pc, [sp], #4
 237              	.LVL6:
 238              	.L17:
 239              	.LCFI5:
 240              		.cfi_restore_state
 105:Src/spi.c     **** 
 241              		.loc 1 105 5 is_stmt 1 view .LVU72
 242              	.LBB2:
 105:Src/spi.c     **** 
 243              		.loc 1 105 5 view .LVU73
 105:Src/spi.c     **** 
 244              		.loc 1 105 5 view .LVU74
 245 0022 204B     		ldr	r3, .L19+8
 246 0024 DA69     		ldr	r2, [r3, #28]
 247 0026 42F48042 		orr	r2, r2, #16384
 248 002a DA61     		str	r2, [r3, #28]
 105:Src/spi.c     **** 
 249              		.loc 1 105 5 view .LVU75
 250 002c DA69     		ldr	r2, [r3, #28]
 251 002e 02F48042 		and	r2, r2, #16384
 252 0032 0092     		str	r2, [sp]
 105:Src/spi.c     **** 
 253              		.loc 1 105 5 view .LVU76
 254 0034 009A     		ldr	r2, [sp]
ARM GAS  C:\Users\Zbigniew\AppData\Local\Temp\ccQAmVce.s 			page 8


 255              	.LBE2:
 105:Src/spi.c     **** 
 256              		.loc 1 105 5 view .LVU77
 107:Src/spi.c     ****     /**SPI2 GPIO Configuration
 257              		.loc 1 107 5 view .LVU78
 258              	.LBB3:
 107:Src/spi.c     ****     /**SPI2 GPIO Configuration
 259              		.loc 1 107 5 view .LVU79
 107:Src/spi.c     ****     /**SPI2 GPIO Configuration
 260              		.loc 1 107 5 view .LVU80
 261 0036 9A69     		ldr	r2, [r3, #24]
 262 0038 42F00802 		orr	r2, r2, #8
 263 003c 9A61     		str	r2, [r3, #24]
 107:Src/spi.c     ****     /**SPI2 GPIO Configuration
 264              		.loc 1 107 5 view .LVU81
 265 003e 9B69     		ldr	r3, [r3, #24]
 266 0040 03F00803 		and	r3, r3, #8
 267 0044 0193     		str	r3, [sp, #4]
 107:Src/spi.c     ****     /**SPI2 GPIO Configuration
 268              		.loc 1 107 5 view .LVU82
 269 0046 019B     		ldr	r3, [sp, #4]
 270              	.LBE3:
 107:Src/spi.c     ****     /**SPI2 GPIO Configuration
 271              		.loc 1 107 5 view .LVU83
 112:Src/spi.c     ****     GPIO_InitStruct.Mode = GPIO_MODE_AF_PP;
 272              		.loc 1 112 5 view .LVU84
 112:Src/spi.c     ****     GPIO_InitStruct.Mode = GPIO_MODE_AF_PP;
 273              		.loc 1 112 25 is_stmt 0 view .LVU85
 274 0048 4FF42043 		mov	r3, #40960
 275 004c 0493     		str	r3, [sp, #16]
 113:Src/spi.c     ****     GPIO_InitStruct.Speed = GPIO_SPEED_FREQ_HIGH;
 276              		.loc 1 113 5 is_stmt 1 view .LVU86
 113:Src/spi.c     ****     GPIO_InitStruct.Speed = GPIO_SPEED_FREQ_HIGH;
 277              		.loc 1 113 26 is_stmt 0 view .LVU87
 278 004e 0223     		movs	r3, #2
 279 0050 0593     		str	r3, [sp, #20]
 114:Src/spi.c     ****     HAL_GPIO_Init(GPIOB, &GPIO_InitStruct);
 280              		.loc 1 114 5 is_stmt 1 view .LVU88
 114:Src/spi.c     ****     HAL_GPIO_Init(GPIOB, &GPIO_InitStruct);
 281              		.loc 1 114 27 is_stmt 0 view .LVU89
 282 0052 0323     		movs	r3, #3
 283 0054 0793     		str	r3, [sp, #28]
 115:Src/spi.c     **** 
 284              		.loc 1 115 5 is_stmt 1 view .LVU90
 285 0056 04A9     		add	r1, sp, #16
 286 0058 1348     		ldr	r0, .L19+12
 287              	.LVL7:
 115:Src/spi.c     **** 
 288              		.loc 1 115 5 is_stmt 0 view .LVU91
 289 005a FFF7FEFF 		bl	HAL_GPIO_Init
 290              	.LVL8:
 291 005e DDE7     		b	.L13
 292              	.LVL9:
 293              	.L18:
 127:Src/spi.c     **** 
 294              		.loc 1 127 5 is_stmt 1 view .LVU92
 295              	.LBB4:
ARM GAS  C:\Users\Zbigniew\AppData\Local\Temp\ccQAmVce.s 			page 9


 127:Src/spi.c     **** 
 296              		.loc 1 127 5 view .LVU93
 127:Src/spi.c     **** 
 297              		.loc 1 127 5 view .LVU94
 298 0060 104B     		ldr	r3, .L19+8
 299 0062 DA69     		ldr	r2, [r3, #28]
 300 0064 42F40042 		orr	r2, r2, #32768
 301 0068 DA61     		str	r2, [r3, #28]
 127:Src/spi.c     **** 
 302              		.loc 1 127 5 view .LVU95
 303 006a DA69     		ldr	r2, [r3, #28]
 304 006c 02F40042 		and	r2, r2, #32768
 305 0070 0292     		str	r2, [sp, #8]
 127:Src/spi.c     **** 
 306              		.loc 1 127 5 view .LVU96
 307 0072 029A     		ldr	r2, [sp, #8]
 308              	.LBE4:
 127:Src/spi.c     **** 
 309              		.loc 1 127 5 view .LVU97
 129:Src/spi.c     ****     /**SPI3 GPIO Configuration
 310              		.loc 1 129 5 view .LVU98
 311              	.LBB5:
 129:Src/spi.c     ****     /**SPI3 GPIO Configuration
 312              		.loc 1 129 5 view .LVU99
 129:Src/spi.c     ****     /**SPI3 GPIO Configuration
 313              		.loc 1 129 5 view .LVU100
 314 0074 9A69     		ldr	r2, [r3, #24]
 315 0076 42F00802 		orr	r2, r2, #8
 316 007a 9A61     		str	r2, [r3, #24]
 129:Src/spi.c     ****     /**SPI3 GPIO Configuration
 317              		.loc 1 129 5 view .LVU101
 318 007c 9B69     		ldr	r3, [r3, #24]
 319 007e 03F00803 		and	r3, r3, #8
 320 0082 0393     		str	r3, [sp, #12]
 129:Src/spi.c     ****     /**SPI3 GPIO Configuration
 321              		.loc 1 129 5 view .LVU102
 322 0084 039B     		ldr	r3, [sp, #12]
 323              	.LBE5:
 129:Src/spi.c     ****     /**SPI3 GPIO Configuration
 324              		.loc 1 129 5 view .LVU103
 134:Src/spi.c     ****     GPIO_InitStruct.Mode = GPIO_MODE_AF_PP;
 325              		.loc 1 134 5 view .LVU104
 134:Src/spi.c     ****     GPIO_InitStruct.Mode = GPIO_MODE_AF_PP;
 326              		.loc 1 134 25 is_stmt 0 view .LVU105
 327 0086 2823     		movs	r3, #40
 328 0088 0493     		str	r3, [sp, #16]
 135:Src/spi.c     ****     GPIO_InitStruct.Speed = GPIO_SPEED_FREQ_HIGH;
 329              		.loc 1 135 5 is_stmt 1 view .LVU106
 135:Src/spi.c     ****     GPIO_InitStruct.Speed = GPIO_SPEED_FREQ_HIGH;
 330              		.loc 1 135 26 is_stmt 0 view .LVU107
 331 008a 0223     		movs	r3, #2
 332 008c 0593     		str	r3, [sp, #20]
 136:Src/spi.c     ****     HAL_GPIO_Init(GPIOB, &GPIO_InitStruct);
 333              		.loc 1 136 5 is_stmt 1 view .LVU108
 136:Src/spi.c     ****     HAL_GPIO_Init(GPIOB, &GPIO_InitStruct);
 334              		.loc 1 136 27 is_stmt 0 view .LVU109
 335 008e 0323     		movs	r3, #3
ARM GAS  C:\Users\Zbigniew\AppData\Local\Temp\ccQAmVce.s 			page 10


 336 0090 0793     		str	r3, [sp, #28]
 137:Src/spi.c     **** 
 337              		.loc 1 137 5 is_stmt 1 view .LVU110
 338 0092 04A9     		add	r1, sp, #16
 339 0094 0448     		ldr	r0, .L19+12
 340              	.LVL10:
 137:Src/spi.c     **** 
 341              		.loc 1 137 5 is_stmt 0 view .LVU111
 342 0096 FFF7FEFF 		bl	HAL_GPIO_Init
 343              	.LVL11:
 344              		.loc 1 143 1 view .LVU112
 345 009a BFE7     		b	.L13
 346              	.L20:
 347              		.align	2
 348              	.L19:
 349 009c 00380040 		.word	1073756160
 350 00a0 003C0040 		.word	1073757184
 351 00a4 00100240 		.word	1073876992
 352 00a8 000C0140 		.word	1073810432
 353              		.cfi_endproc
 354              	.LFE67:
 356              		.section	.text.HAL_SPI_MspDeInit,"ax",%progbits
 357              		.align	1
 358              		.global	HAL_SPI_MspDeInit
 359              		.syntax unified
 360              		.thumb
 361              		.thumb_func
 363              	HAL_SPI_MspDeInit:
 364              	.LVL12:
 365              	.LFB68:
 144:Src/spi.c     **** 
 145:Src/spi.c     **** void HAL_SPI_MspDeInit(SPI_HandleTypeDef* spiHandle)
 146:Src/spi.c     **** {
 366              		.loc 1 146 1 is_stmt 1 view -0
 367              		.cfi_startproc
 368              		@ args = 0, pretend = 0, frame = 0
 369              		@ frame_needed = 0, uses_anonymous_args = 0
 370              		.loc 1 146 1 is_stmt 0 view .LVU114
 371 0000 08B5     		push	{r3, lr}
 372              	.LCFI6:
 373              		.cfi_def_cfa_offset 8
 374              		.cfi_offset 3, -8
 375              		.cfi_offset 14, -4
 147:Src/spi.c     **** 
 148:Src/spi.c     ****   if(spiHandle->Instance==SPI2)
 376              		.loc 1 148 3 is_stmt 1 view .LVU115
 377              		.loc 1 148 15 is_stmt 0 view .LVU116
 378 0002 0368     		ldr	r3, [r0]
 379              		.loc 1 148 5 view .LVU117
 380 0004 0E4A     		ldr	r2, .L27
 381 0006 9342     		cmp	r3, r2
 382 0008 03D0     		beq	.L25
 149:Src/spi.c     ****   {
 150:Src/spi.c     ****   /* USER CODE BEGIN SPI2_MspDeInit 0 */
 151:Src/spi.c     **** 
 152:Src/spi.c     ****   /* USER CODE END SPI2_MspDeInit 0 */
 153:Src/spi.c     ****     /* Peripheral clock disable */
ARM GAS  C:\Users\Zbigniew\AppData\Local\Temp\ccQAmVce.s 			page 11


 154:Src/spi.c     ****     __HAL_RCC_SPI2_CLK_DISABLE();
 155:Src/spi.c     **** 
 156:Src/spi.c     ****     /**SPI2 GPIO Configuration
 157:Src/spi.c     ****     PB13     ------> SPI2_SCK
 158:Src/spi.c     ****     PB15     ------> SPI2_MOSI
 159:Src/spi.c     ****     */
 160:Src/spi.c     ****     HAL_GPIO_DeInit(GPIOB, GPIO_PIN_13|GPIO_PIN_15);
 161:Src/spi.c     **** 
 162:Src/spi.c     ****   /* USER CODE BEGIN SPI2_MspDeInit 1 */
 163:Src/spi.c     **** 
 164:Src/spi.c     ****   /* USER CODE END SPI2_MspDeInit 1 */
 165:Src/spi.c     ****   }
 166:Src/spi.c     ****   else if(spiHandle->Instance==SPI3)
 383              		.loc 1 166 8 is_stmt 1 view .LVU118
 384              		.loc 1 166 10 is_stmt 0 view .LVU119
 385 000a 0E4A     		ldr	r2, .L27+4
 386 000c 9342     		cmp	r3, r2
 387 000e 0CD0     		beq	.L26
 388              	.LVL13:
 389              	.L21:
 167:Src/spi.c     ****   {
 168:Src/spi.c     ****   /* USER CODE BEGIN SPI3_MspDeInit 0 */
 169:Src/spi.c     **** 
 170:Src/spi.c     ****   /* USER CODE END SPI3_MspDeInit 0 */
 171:Src/spi.c     ****     /* Peripheral clock disable */
 172:Src/spi.c     ****     __HAL_RCC_SPI3_CLK_DISABLE();
 173:Src/spi.c     **** 
 174:Src/spi.c     ****     /**SPI3 GPIO Configuration
 175:Src/spi.c     ****     PB3     ------> SPI3_SCK
 176:Src/spi.c     ****     PB5     ------> SPI3_MOSI
 177:Src/spi.c     ****     */
 178:Src/spi.c     ****     HAL_GPIO_DeInit(GPIOB, GPIO_PIN_3|GPIO_PIN_5);
 179:Src/spi.c     **** 
 180:Src/spi.c     ****   /* USER CODE BEGIN SPI3_MspDeInit 1 */
 181:Src/spi.c     **** 
 182:Src/spi.c     ****   /* USER CODE END SPI3_MspDeInit 1 */
 183:Src/spi.c     ****   }
 184:Src/spi.c     **** }
 390              		.loc 1 184 1 view .LVU120
 391 0010 08BD     		pop	{r3, pc}
 392              	.LVL14:
 393              	.L25:
 154:Src/spi.c     **** 
 394              		.loc 1 154 5 is_stmt 1 view .LVU121
 395 0012 02F5EC32 		add	r2, r2, #120832
 396 0016 D369     		ldr	r3, [r2, #28]
 397 0018 23F48043 		bic	r3, r3, #16384
 398 001c D361     		str	r3, [r2, #28]
 160:Src/spi.c     **** 
 399              		.loc 1 160 5 view .LVU122
 400 001e 4FF42041 		mov	r1, #40960
 401 0022 0948     		ldr	r0, .L27+8
 402              	.LVL15:
 160:Src/spi.c     **** 
 403              		.loc 1 160 5 is_stmt 0 view .LVU123
 404 0024 FFF7FEFF 		bl	HAL_GPIO_DeInit
 405              	.LVL16:
ARM GAS  C:\Users\Zbigniew\AppData\Local\Temp\ccQAmVce.s 			page 12


 406 0028 F2E7     		b	.L21
 407              	.LVL17:
 408              	.L26:
 172:Src/spi.c     **** 
 409              		.loc 1 172 5 is_stmt 1 view .LVU124
 410 002a 02F5EA32 		add	r2, r2, #119808
 411 002e D369     		ldr	r3, [r2, #28]
 412 0030 23F40043 		bic	r3, r3, #32768
 413 0034 D361     		str	r3, [r2, #28]
 178:Src/spi.c     **** 
 414              		.loc 1 178 5 view .LVU125
 415 0036 2821     		movs	r1, #40
 416 0038 0348     		ldr	r0, .L27+8
 417              	.LVL18:
 178:Src/spi.c     **** 
 418              		.loc 1 178 5 is_stmt 0 view .LVU126
 419 003a FFF7FEFF 		bl	HAL_GPIO_DeInit
 420              	.LVL19:
 421              		.loc 1 184 1 view .LVU127
 422 003e E7E7     		b	.L21
 423              	.L28:
 424              		.align	2
 425              	.L27:
 426 0040 00380040 		.word	1073756160
 427 0044 003C0040 		.word	1073757184
 428 0048 000C0140 		.word	1073810432
 429              		.cfi_endproc
 430              	.LFE68:
 432              		.global	hspi3
 433              		.global	hspi2
 434              		.section	.bss.hspi2,"aw",%nobits
 435              		.align	2
 436              		.set	.LANCHOR0,. + 0
 439              	hspi2:
 440 0000 00000000 		.space	88
 440      00000000 
 440      00000000 
 440      00000000 
 440      00000000 
 441              		.section	.bss.hspi3,"aw",%nobits
 442              		.align	2
 443              		.set	.LANCHOR1,. + 0
 446              	hspi3:
 447 0000 00000000 		.space	88
 447      00000000 
 447      00000000 
 447      00000000 
 447      00000000 
 448              		.text
 449              	.Letext0:
 450              		.file 2 "c:\\users\\zbigniew\\appdata\\roaming\\code\\user\\globalstorage\\bmd.stm32-for-vscode\\@
 451              		.file 3 "c:\\users\\zbigniew\\appdata\\roaming\\code\\user\\globalstorage\\bmd.stm32-for-vscode\\@
 452              		.file 4 "Drivers/CMSIS/Device/ST/STM32F1xx/Include/stm32f103xe.h"
 453              		.file 5 "Drivers/STM32F1xx_HAL_Driver/Inc/stm32f1xx_hal_def.h"
 454              		.file 6 "Drivers/STM32F1xx_HAL_Driver/Inc/stm32f1xx_hal_gpio.h"
 455              		.file 7 "Drivers/STM32F1xx_HAL_Driver/Inc/stm32f1xx_hal_dma.h"
 456              		.file 8 "Drivers/STM32F1xx_HAL_Driver/Inc/stm32f1xx_hal_spi.h"
ARM GAS  C:\Users\Zbigniew\AppData\Local\Temp\ccQAmVce.s 			page 13


 457              		.file 9 "Inc/spi.h"
 458              		.file 10 "Inc/main.h"
ARM GAS  C:\Users\Zbigniew\AppData\Local\Temp\ccQAmVce.s 			page 14

