ARM GAS  C:\Users\Zbigniew\AppData\Local\Temp\ccQen79L.s 			page 1


   1              		.cpu cortex-m3
   2              		.arch armv7-m
   3              		.fpu softvfp
   4              		.eabi_attribute 20, 1
   5              		.eabi_attribute 21, 1
   6              		.eabi_attribute 23, 3
   7              		.eabi_attribute 24, 1
   8              		.eabi_attribute 25, 1
   9              		.eabi_attribute 26, 1
  10              		.eabi_attribute 30, 1
  11              		.eabi_attribute 34, 1
  12              		.eabi_attribute 18, 4
  13              		.file	"tim.c"
  14              		.text
  15              	.Ltext0:
  16              		.cfi_sections	.debug_frame
  17              		.section	.text.HAL_TIM_Base_MspInit,"ax",%progbits
  18              		.align	1
  19              		.global	HAL_TIM_Base_MspInit
  20              		.syntax unified
  21              		.thumb
  22              		.thumb_func
  24              	HAL_TIM_Base_MspInit:
  25              	.LVL0:
  26              	.LFB66:
  27              		.file 1 "Src/tim.c"
   1:Src/tim.c     **** /**
   2:Src/tim.c     ****   ******************************************************************************
   3:Src/tim.c     ****   * @file    tim.c
   4:Src/tim.c     ****   * @brief   This file provides code for the configuration
   5:Src/tim.c     ****   *          of the TIM instances.
   6:Src/tim.c     ****   ******************************************************************************
   7:Src/tim.c     ****   * @attention
   8:Src/tim.c     ****   *
   9:Src/tim.c     ****   * <h2><center>&copy; Copyright (c) 2021 STMicroelectronics.
  10:Src/tim.c     ****   * All rights reserved.</center></h2>
  11:Src/tim.c     ****   *
  12:Src/tim.c     ****   * This software component is licensed by ST under BSD 3-Clause license,
  13:Src/tim.c     ****   * the "License"; You may not use this file except in compliance with the
  14:Src/tim.c     ****   * License. You may obtain a copy of the License at:
  15:Src/tim.c     ****   *                        opensource.org/licenses/BSD-3-Clause
  16:Src/tim.c     ****   *
  17:Src/tim.c     ****   ******************************************************************************
  18:Src/tim.c     ****   */
  19:Src/tim.c     **** 
  20:Src/tim.c     **** /* Includes ------------------------------------------------------------------*/
  21:Src/tim.c     **** #include "tim.h"
  22:Src/tim.c     **** 
  23:Src/tim.c     **** /* USER CODE BEGIN 0 */
  24:Src/tim.c     **** 
  25:Src/tim.c     **** /* USER CODE END 0 */
  26:Src/tim.c     **** 
  27:Src/tim.c     **** TIM_HandleTypeDef htim3;
  28:Src/tim.c     **** 
  29:Src/tim.c     **** /* TIM3 init function */
  30:Src/tim.c     **** void MX_TIM3_Init(void)
  31:Src/tim.c     **** {
ARM GAS  C:\Users\Zbigniew\AppData\Local\Temp\ccQen79L.s 			page 2


  32:Src/tim.c     **** 
  33:Src/tim.c     ****   /* USER CODE BEGIN TIM3_Init 0 */
  34:Src/tim.c     **** 
  35:Src/tim.c     ****   /* USER CODE END TIM3_Init 0 */
  36:Src/tim.c     **** 
  37:Src/tim.c     ****   TIM_ClockConfigTypeDef sClockSourceConfig = {0};
  38:Src/tim.c     ****   TIM_MasterConfigTypeDef sMasterConfig = {0};
  39:Src/tim.c     ****   TIM_OC_InitTypeDef sConfigOC = {0};
  40:Src/tim.c     **** 
  41:Src/tim.c     ****   /* USER CODE BEGIN TIM3_Init 1 */
  42:Src/tim.c     **** 
  43:Src/tim.c     ****   /* USER CODE END TIM3_Init 1 */
  44:Src/tim.c     ****   htim3.Instance = TIM3;
  45:Src/tim.c     ****   htim3.Init.Prescaler = 4999;
  46:Src/tim.c     ****   htim3.Init.CounterMode = TIM_COUNTERMODE_UP;
  47:Src/tim.c     ****   htim3.Init.Period = 99;
  48:Src/tim.c     ****   htim3.Init.ClockDivision = TIM_CLOCKDIVISION_DIV1;
  49:Src/tim.c     ****   htim3.Init.AutoReloadPreload = TIM_AUTORELOAD_PRELOAD_DISABLE;
  50:Src/tim.c     ****   if (HAL_TIM_Base_Init(&htim3) != HAL_OK)
  51:Src/tim.c     ****   {
  52:Src/tim.c     ****     Error_Handler();
  53:Src/tim.c     ****   }
  54:Src/tim.c     ****   sClockSourceConfig.ClockSource = TIM_CLOCKSOURCE_INTERNAL;
  55:Src/tim.c     ****   if (HAL_TIM_ConfigClockSource(&htim3, &sClockSourceConfig) != HAL_OK)
  56:Src/tim.c     ****   {
  57:Src/tim.c     ****     Error_Handler();
  58:Src/tim.c     ****   }
  59:Src/tim.c     ****   if (HAL_TIM_PWM_Init(&htim3) != HAL_OK)
  60:Src/tim.c     ****   {
  61:Src/tim.c     ****     Error_Handler();
  62:Src/tim.c     ****   }
  63:Src/tim.c     ****   sMasterConfig.MasterOutputTrigger = TIM_TRGO_RESET;
  64:Src/tim.c     ****   sMasterConfig.MasterSlaveMode = TIM_MASTERSLAVEMODE_DISABLE;
  65:Src/tim.c     ****   if (HAL_TIMEx_MasterConfigSynchronization(&htim3, &sMasterConfig) != HAL_OK)
  66:Src/tim.c     ****   {
  67:Src/tim.c     ****     Error_Handler();
  68:Src/tim.c     ****   }
  69:Src/tim.c     ****   sConfigOC.OCMode = TIM_OCMODE_PWM1;
  70:Src/tim.c     ****   sConfigOC.Pulse = 0;
  71:Src/tim.c     ****   sConfigOC.OCPolarity = TIM_OCPOLARITY_HIGH;
  72:Src/tim.c     ****   sConfigOC.OCFastMode = TIM_OCFAST_DISABLE;
  73:Src/tim.c     ****   if (HAL_TIM_PWM_ConfigChannel(&htim3, &sConfigOC, TIM_CHANNEL_1) != HAL_OK)
  74:Src/tim.c     ****   {
  75:Src/tim.c     ****     Error_Handler();
  76:Src/tim.c     ****   }
  77:Src/tim.c     ****   if (HAL_TIM_PWM_ConfigChannel(&htim3, &sConfigOC, TIM_CHANNEL_2) != HAL_OK)
  78:Src/tim.c     ****   {
  79:Src/tim.c     ****     Error_Handler();
  80:Src/tim.c     ****   }
  81:Src/tim.c     ****   if (HAL_TIM_PWM_ConfigChannel(&htim3, &sConfigOC, TIM_CHANNEL_3) != HAL_OK)
  82:Src/tim.c     ****   {
  83:Src/tim.c     ****     Error_Handler();
  84:Src/tim.c     ****   }
  85:Src/tim.c     ****   /* USER CODE BEGIN TIM3_Init 2 */
  86:Src/tim.c     **** 
  87:Src/tim.c     ****   /* USER CODE END TIM3_Init 2 */
  88:Src/tim.c     ****   HAL_TIM_MspPostInit(&htim3);
ARM GAS  C:\Users\Zbigniew\AppData\Local\Temp\ccQen79L.s 			page 3


  89:Src/tim.c     **** 
  90:Src/tim.c     **** }
  91:Src/tim.c     **** 
  92:Src/tim.c     **** void HAL_TIM_Base_MspInit(TIM_HandleTypeDef* tim_baseHandle)
  93:Src/tim.c     **** {
  28              		.loc 1 93 1 view -0
  29              		.cfi_startproc
  30              		@ args = 0, pretend = 0, frame = 8
  31              		@ frame_needed = 0, uses_anonymous_args = 0
  32              		@ link register save eliminated.
  94:Src/tim.c     **** 
  95:Src/tim.c     ****   if(tim_baseHandle->Instance==TIM3)
  33              		.loc 1 95 3 view .LVU1
  34              		.loc 1 95 20 is_stmt 0 view .LVU2
  35 0000 0268     		ldr	r2, [r0]
  36              		.loc 1 95 5 view .LVU3
  37 0002 094B     		ldr	r3, .L8
  38 0004 9A42     		cmp	r2, r3
  39 0006 00D0     		beq	.L7
  40 0008 7047     		bx	lr
  41              	.L7:
  93:Src/tim.c     **** 
  42              		.loc 1 93 1 view .LVU4
  43 000a 82B0     		sub	sp, sp, #8
  44              	.LCFI0:
  45              		.cfi_def_cfa_offset 8
  96:Src/tim.c     ****   {
  97:Src/tim.c     ****   /* USER CODE BEGIN TIM3_MspInit 0 */
  98:Src/tim.c     **** 
  99:Src/tim.c     ****   /* USER CODE END TIM3_MspInit 0 */
 100:Src/tim.c     ****     /* TIM3 clock enable */
 101:Src/tim.c     ****     __HAL_RCC_TIM3_CLK_ENABLE();
  46              		.loc 1 101 5 is_stmt 1 view .LVU5
  47              	.LBB2:
  48              		.loc 1 101 5 view .LVU6
  49              		.loc 1 101 5 view .LVU7
  50 000c 03F50333 		add	r3, r3, #134144
  51 0010 DA69     		ldr	r2, [r3, #28]
  52 0012 42F00202 		orr	r2, r2, #2
  53 0016 DA61     		str	r2, [r3, #28]
  54              		.loc 1 101 5 view .LVU8
  55 0018 DB69     		ldr	r3, [r3, #28]
  56 001a 03F00203 		and	r3, r3, #2
  57 001e 0193     		str	r3, [sp, #4]
  58              		.loc 1 101 5 view .LVU9
  59 0020 019B     		ldr	r3, [sp, #4]
  60              	.LBE2:
  61              		.loc 1 101 5 view .LVU10
 102:Src/tim.c     ****   /* USER CODE BEGIN TIM3_MspInit 1 */
 103:Src/tim.c     **** 
 104:Src/tim.c     ****   /* USER CODE END TIM3_MspInit 1 */
 105:Src/tim.c     ****   }
 106:Src/tim.c     **** }
  62              		.loc 1 106 1 is_stmt 0 view .LVU11
  63 0022 02B0     		add	sp, sp, #8
  64              	.LCFI1:
  65              		.cfi_def_cfa_offset 0
ARM GAS  C:\Users\Zbigniew\AppData\Local\Temp\ccQen79L.s 			page 4


  66              		@ sp needed
  67 0024 7047     		bx	lr
  68              	.L9:
  69 0026 00BF     		.align	2
  70              	.L8:
  71 0028 00040040 		.word	1073742848
  72              		.cfi_endproc
  73              	.LFE66:
  75              		.section	.text.HAL_TIM_MspPostInit,"ax",%progbits
  76              		.align	1
  77              		.global	HAL_TIM_MspPostInit
  78              		.syntax unified
  79              		.thumb
  80              		.thumb_func
  82              	HAL_TIM_MspPostInit:
  83              	.LVL1:
  84              	.LFB67:
 107:Src/tim.c     **** void HAL_TIM_MspPostInit(TIM_HandleTypeDef* timHandle)
 108:Src/tim.c     **** {
  85              		.loc 1 108 1 is_stmt 1 view -0
  86              		.cfi_startproc
  87              		@ args = 0, pretend = 0, frame = 24
  88              		@ frame_needed = 0, uses_anonymous_args = 0
  89              		.loc 1 108 1 is_stmt 0 view .LVU13
  90 0000 10B5     		push	{r4, lr}
  91              	.LCFI2:
  92              		.cfi_def_cfa_offset 8
  93              		.cfi_offset 4, -8
  94              		.cfi_offset 14, -4
  95 0002 86B0     		sub	sp, sp, #24
  96              	.LCFI3:
  97              		.cfi_def_cfa_offset 32
 109:Src/tim.c     **** 
 110:Src/tim.c     ****   GPIO_InitTypeDef GPIO_InitStruct = {0};
  98              		.loc 1 110 3 is_stmt 1 view .LVU14
  99              		.loc 1 110 20 is_stmt 0 view .LVU15
 100 0004 0023     		movs	r3, #0
 101 0006 0293     		str	r3, [sp, #8]
 102 0008 0393     		str	r3, [sp, #12]
 103 000a 0493     		str	r3, [sp, #16]
 104 000c 0593     		str	r3, [sp, #20]
 111:Src/tim.c     ****   if(timHandle->Instance==TIM3)
 105              		.loc 1 111 3 is_stmt 1 view .LVU16
 106              		.loc 1 111 15 is_stmt 0 view .LVU17
 107 000e 0268     		ldr	r2, [r0]
 108              		.loc 1 111 5 view .LVU18
 109 0010 154B     		ldr	r3, .L14
 110 0012 9A42     		cmp	r2, r3
 111 0014 01D0     		beq	.L13
 112              	.LVL2:
 113              	.L10:
 112:Src/tim.c     ****   {
 113:Src/tim.c     ****   /* USER CODE BEGIN TIM3_MspPostInit 0 */
 114:Src/tim.c     **** 
 115:Src/tim.c     ****   /* USER CODE END TIM3_MspPostInit 0 */
 116:Src/tim.c     **** 
 117:Src/tim.c     ****     __HAL_RCC_GPIOA_CLK_ENABLE();
ARM GAS  C:\Users\Zbigniew\AppData\Local\Temp\ccQen79L.s 			page 5


 118:Src/tim.c     ****     __HAL_RCC_GPIOB_CLK_ENABLE();
 119:Src/tim.c     ****     /**TIM3 GPIO Configuration
 120:Src/tim.c     ****     PA6     ------> TIM3_CH1
 121:Src/tim.c     ****     PA7     ------> TIM3_CH2
 122:Src/tim.c     ****     PB0     ------> TIM3_CH3
 123:Src/tim.c     ****     */
 124:Src/tim.c     ****     GPIO_InitStruct.Pin = GPIO_PIN_6|GPIO_PIN_7;
 125:Src/tim.c     ****     GPIO_InitStruct.Mode = GPIO_MODE_AF_PP;
 126:Src/tim.c     ****     GPIO_InitStruct.Speed = GPIO_SPEED_FREQ_LOW;
 127:Src/tim.c     ****     HAL_GPIO_Init(GPIOA, &GPIO_InitStruct);
 128:Src/tim.c     **** 
 129:Src/tim.c     ****     GPIO_InitStruct.Pin = GPIO_PIN_0;
 130:Src/tim.c     ****     GPIO_InitStruct.Mode = GPIO_MODE_AF_PP;
 131:Src/tim.c     ****     GPIO_InitStruct.Speed = GPIO_SPEED_FREQ_LOW;
 132:Src/tim.c     ****     HAL_GPIO_Init(GPIOB, &GPIO_InitStruct);
 133:Src/tim.c     **** 
 134:Src/tim.c     ****   /* USER CODE BEGIN TIM3_MspPostInit 1 */
 135:Src/tim.c     **** 
 136:Src/tim.c     ****   /* USER CODE END TIM3_MspPostInit 1 */
 137:Src/tim.c     ****   }
 138:Src/tim.c     **** 
 139:Src/tim.c     **** }
 114              		.loc 1 139 1 view .LVU19
 115 0016 06B0     		add	sp, sp, #24
 116              	.LCFI4:
 117              		.cfi_remember_state
 118              		.cfi_def_cfa_offset 8
 119              		@ sp needed
 120 0018 10BD     		pop	{r4, pc}
 121              	.LVL3:
 122              	.L13:
 123              	.LCFI5:
 124              		.cfi_restore_state
 117:Src/tim.c     ****     __HAL_RCC_GPIOB_CLK_ENABLE();
 125              		.loc 1 117 5 is_stmt 1 view .LVU20
 126              	.LBB3:
 117:Src/tim.c     ****     __HAL_RCC_GPIOB_CLK_ENABLE();
 127              		.loc 1 117 5 view .LVU21
 117:Src/tim.c     ****     __HAL_RCC_GPIOB_CLK_ENABLE();
 128              		.loc 1 117 5 view .LVU22
 129 001a 03F50333 		add	r3, r3, #134144
 130 001e 9A69     		ldr	r2, [r3, #24]
 131 0020 42F00402 		orr	r2, r2, #4
 132 0024 9A61     		str	r2, [r3, #24]
 117:Src/tim.c     ****     __HAL_RCC_GPIOB_CLK_ENABLE();
 133              		.loc 1 117 5 view .LVU23
 134 0026 9A69     		ldr	r2, [r3, #24]
 135 0028 02F00402 		and	r2, r2, #4
 136 002c 0092     		str	r2, [sp]
 117:Src/tim.c     ****     __HAL_RCC_GPIOB_CLK_ENABLE();
 137              		.loc 1 117 5 view .LVU24
 138 002e 009A     		ldr	r2, [sp]
 139              	.LBE3:
 117:Src/tim.c     ****     __HAL_RCC_GPIOB_CLK_ENABLE();
 140              		.loc 1 117 5 view .LVU25
 118:Src/tim.c     ****     /**TIM3 GPIO Configuration
 141              		.loc 1 118 5 view .LVU26
ARM GAS  C:\Users\Zbigniew\AppData\Local\Temp\ccQen79L.s 			page 6


 142              	.LBB4:
 118:Src/tim.c     ****     /**TIM3 GPIO Configuration
 143              		.loc 1 118 5 view .LVU27
 118:Src/tim.c     ****     /**TIM3 GPIO Configuration
 144              		.loc 1 118 5 view .LVU28
 145 0030 9A69     		ldr	r2, [r3, #24]
 146 0032 42F00802 		orr	r2, r2, #8
 147 0036 9A61     		str	r2, [r3, #24]
 118:Src/tim.c     ****     /**TIM3 GPIO Configuration
 148              		.loc 1 118 5 view .LVU29
 149 0038 9B69     		ldr	r3, [r3, #24]
 150 003a 03F00803 		and	r3, r3, #8
 151 003e 0193     		str	r3, [sp, #4]
 118:Src/tim.c     ****     /**TIM3 GPIO Configuration
 152              		.loc 1 118 5 view .LVU30
 153 0040 019B     		ldr	r3, [sp, #4]
 154              	.LBE4:
 118:Src/tim.c     ****     /**TIM3 GPIO Configuration
 155              		.loc 1 118 5 view .LVU31
 124:Src/tim.c     ****     GPIO_InitStruct.Mode = GPIO_MODE_AF_PP;
 156              		.loc 1 124 5 view .LVU32
 124:Src/tim.c     ****     GPIO_InitStruct.Mode = GPIO_MODE_AF_PP;
 157              		.loc 1 124 25 is_stmt 0 view .LVU33
 158 0042 C023     		movs	r3, #192
 159 0044 0293     		str	r3, [sp, #8]
 125:Src/tim.c     ****     GPIO_InitStruct.Speed = GPIO_SPEED_FREQ_LOW;
 160              		.loc 1 125 5 is_stmt 1 view .LVU34
 125:Src/tim.c     ****     GPIO_InitStruct.Speed = GPIO_SPEED_FREQ_LOW;
 161              		.loc 1 125 26 is_stmt 0 view .LVU35
 162 0046 0224     		movs	r4, #2
 163 0048 0394     		str	r4, [sp, #12]
 126:Src/tim.c     ****     HAL_GPIO_Init(GPIOA, &GPIO_InitStruct);
 164              		.loc 1 126 5 is_stmt 1 view .LVU36
 126:Src/tim.c     ****     HAL_GPIO_Init(GPIOA, &GPIO_InitStruct);
 165              		.loc 1 126 27 is_stmt 0 view .LVU37
 166 004a 0594     		str	r4, [sp, #20]
 127:Src/tim.c     **** 
 167              		.loc 1 127 5 is_stmt 1 view .LVU38
 168 004c 02A9     		add	r1, sp, #8
 169 004e 0748     		ldr	r0, .L14+4
 170              	.LVL4:
 127:Src/tim.c     **** 
 171              		.loc 1 127 5 is_stmt 0 view .LVU39
 172 0050 FFF7FEFF 		bl	HAL_GPIO_Init
 173              	.LVL5:
 129:Src/tim.c     ****     GPIO_InitStruct.Mode = GPIO_MODE_AF_PP;
 174              		.loc 1 129 5 is_stmt 1 view .LVU40
 129:Src/tim.c     ****     GPIO_InitStruct.Mode = GPIO_MODE_AF_PP;
 175              		.loc 1 129 25 is_stmt 0 view .LVU41
 176 0054 0123     		movs	r3, #1
 177 0056 0293     		str	r3, [sp, #8]
 130:Src/tim.c     ****     GPIO_InitStruct.Speed = GPIO_SPEED_FREQ_LOW;
 178              		.loc 1 130 5 is_stmt 1 view .LVU42
 130:Src/tim.c     ****     GPIO_InitStruct.Speed = GPIO_SPEED_FREQ_LOW;
 179              		.loc 1 130 26 is_stmt 0 view .LVU43
 180 0058 0394     		str	r4, [sp, #12]
 131:Src/tim.c     ****     HAL_GPIO_Init(GPIOB, &GPIO_InitStruct);
ARM GAS  C:\Users\Zbigniew\AppData\Local\Temp\ccQen79L.s 			page 7


 181              		.loc 1 131 5 is_stmt 1 view .LVU44
 131:Src/tim.c     ****     HAL_GPIO_Init(GPIOB, &GPIO_InitStruct);
 182              		.loc 1 131 27 is_stmt 0 view .LVU45
 183 005a 0594     		str	r4, [sp, #20]
 132:Src/tim.c     **** 
 184              		.loc 1 132 5 is_stmt 1 view .LVU46
 185 005c 02A9     		add	r1, sp, #8
 186 005e 0448     		ldr	r0, .L14+8
 187 0060 FFF7FEFF 		bl	HAL_GPIO_Init
 188              	.LVL6:
 189              		.loc 1 139 1 is_stmt 0 view .LVU47
 190 0064 D7E7     		b	.L10
 191              	.L15:
 192 0066 00BF     		.align	2
 193              	.L14:
 194 0068 00040040 		.word	1073742848
 195 006c 00080140 		.word	1073809408
 196 0070 000C0140 		.word	1073810432
 197              		.cfi_endproc
 198              	.LFE67:
 200              		.section	.text.MX_TIM3_Init,"ax",%progbits
 201              		.align	1
 202              		.global	MX_TIM3_Init
 203              		.syntax unified
 204              		.thumb
 205              		.thumb_func
 207              	MX_TIM3_Init:
 208              	.LFB65:
  31:Src/tim.c     **** 
 209              		.loc 1 31 1 is_stmt 1 view -0
 210              		.cfi_startproc
 211              		@ args = 0, pretend = 0, frame = 56
 212              		@ frame_needed = 0, uses_anonymous_args = 0
 213 0000 00B5     		push	{lr}
 214              	.LCFI6:
 215              		.cfi_def_cfa_offset 4
 216              		.cfi_offset 14, -4
 217 0002 8FB0     		sub	sp, sp, #60
 218              	.LCFI7:
 219              		.cfi_def_cfa_offset 64
  37:Src/tim.c     ****   TIM_MasterConfigTypeDef sMasterConfig = {0};
 220              		.loc 1 37 3 view .LVU49
  37:Src/tim.c     ****   TIM_MasterConfigTypeDef sMasterConfig = {0};
 221              		.loc 1 37 26 is_stmt 0 view .LVU50
 222 0004 0023     		movs	r3, #0
 223 0006 0A93     		str	r3, [sp, #40]
 224 0008 0B93     		str	r3, [sp, #44]
 225 000a 0C93     		str	r3, [sp, #48]
 226 000c 0D93     		str	r3, [sp, #52]
  38:Src/tim.c     ****   TIM_OC_InitTypeDef sConfigOC = {0};
 227              		.loc 1 38 3 is_stmt 1 view .LVU51
  38:Src/tim.c     ****   TIM_OC_InitTypeDef sConfigOC = {0};
 228              		.loc 1 38 27 is_stmt 0 view .LVU52
 229 000e 0893     		str	r3, [sp, #32]
 230 0010 0993     		str	r3, [sp, #36]
  39:Src/tim.c     **** 
 231              		.loc 1 39 3 is_stmt 1 view .LVU53
ARM GAS  C:\Users\Zbigniew\AppData\Local\Temp\ccQen79L.s 			page 8


  39:Src/tim.c     **** 
 232              		.loc 1 39 22 is_stmt 0 view .LVU54
 233 0012 0193     		str	r3, [sp, #4]
 234 0014 0293     		str	r3, [sp, #8]
 235 0016 0393     		str	r3, [sp, #12]
 236 0018 0493     		str	r3, [sp, #16]
 237 001a 0593     		str	r3, [sp, #20]
 238 001c 0693     		str	r3, [sp, #24]
 239 001e 0793     		str	r3, [sp, #28]
  44:Src/tim.c     ****   htim3.Init.Prescaler = 4999;
 240              		.loc 1 44 3 is_stmt 1 view .LVU55
  44:Src/tim.c     ****   htim3.Init.Prescaler = 4999;
 241              		.loc 1 44 18 is_stmt 0 view .LVU56
 242 0020 2A48     		ldr	r0, .L32
 243 0022 2B4A     		ldr	r2, .L32+4
 244 0024 0260     		str	r2, [r0]
  45:Src/tim.c     ****   htim3.Init.CounterMode = TIM_COUNTERMODE_UP;
 245              		.loc 1 45 3 is_stmt 1 view .LVU57
  45:Src/tim.c     ****   htim3.Init.CounterMode = TIM_COUNTERMODE_UP;
 246              		.loc 1 45 24 is_stmt 0 view .LVU58
 247 0026 41F28732 		movw	r2, #4999
 248 002a 4260     		str	r2, [r0, #4]
  46:Src/tim.c     ****   htim3.Init.Period = 99;
 249              		.loc 1 46 3 is_stmt 1 view .LVU59
  46:Src/tim.c     ****   htim3.Init.Period = 99;
 250              		.loc 1 46 26 is_stmt 0 view .LVU60
 251 002c 8360     		str	r3, [r0, #8]
  47:Src/tim.c     ****   htim3.Init.ClockDivision = TIM_CLOCKDIVISION_DIV1;
 252              		.loc 1 47 3 is_stmt 1 view .LVU61
  47:Src/tim.c     ****   htim3.Init.ClockDivision = TIM_CLOCKDIVISION_DIV1;
 253              		.loc 1 47 21 is_stmt 0 view .LVU62
 254 002e 6322     		movs	r2, #99
 255 0030 C260     		str	r2, [r0, #12]
  48:Src/tim.c     ****   htim3.Init.AutoReloadPreload = TIM_AUTORELOAD_PRELOAD_DISABLE;
 256              		.loc 1 48 3 is_stmt 1 view .LVU63
  48:Src/tim.c     ****   htim3.Init.AutoReloadPreload = TIM_AUTORELOAD_PRELOAD_DISABLE;
 257              		.loc 1 48 28 is_stmt 0 view .LVU64
 258 0032 0361     		str	r3, [r0, #16]
  49:Src/tim.c     ****   if (HAL_TIM_Base_Init(&htim3) != HAL_OK)
 259              		.loc 1 49 3 is_stmt 1 view .LVU65
  49:Src/tim.c     ****   if (HAL_TIM_Base_Init(&htim3) != HAL_OK)
 260              		.loc 1 49 32 is_stmt 0 view .LVU66
 261 0034 8361     		str	r3, [r0, #24]
  50:Src/tim.c     ****   {
 262              		.loc 1 50 3 is_stmt 1 view .LVU67
  50:Src/tim.c     ****   {
 263              		.loc 1 50 7 is_stmt 0 view .LVU68
 264 0036 FFF7FEFF 		bl	HAL_TIM_Base_Init
 265              	.LVL7:
  50:Src/tim.c     ****   {
 266              		.loc 1 50 6 view .LVU69
 267 003a 0028     		cmp	r0, #0
 268 003c 31D1     		bne	.L25
 269              	.L17:
  54:Src/tim.c     ****   if (HAL_TIM_ConfigClockSource(&htim3, &sClockSourceConfig) != HAL_OK)
 270              		.loc 1 54 3 is_stmt 1 view .LVU70
  54:Src/tim.c     ****   if (HAL_TIM_ConfigClockSource(&htim3, &sClockSourceConfig) != HAL_OK)
ARM GAS  C:\Users\Zbigniew\AppData\Local\Temp\ccQen79L.s 			page 9


 271              		.loc 1 54 34 is_stmt 0 view .LVU71
 272 003e 4FF48053 		mov	r3, #4096
 273 0042 0A93     		str	r3, [sp, #40]
  55:Src/tim.c     ****   {
 274              		.loc 1 55 3 is_stmt 1 view .LVU72
  55:Src/tim.c     ****   {
 275              		.loc 1 55 7 is_stmt 0 view .LVU73
 276 0044 0AA9     		add	r1, sp, #40
 277 0046 2148     		ldr	r0, .L32
 278 0048 FFF7FEFF 		bl	HAL_TIM_ConfigClockSource
 279              	.LVL8:
  55:Src/tim.c     ****   {
 280              		.loc 1 55 6 view .LVU74
 281 004c 60BB     		cbnz	r0, .L26
 282              	.L18:
  59:Src/tim.c     ****   {
 283              		.loc 1 59 3 is_stmt 1 view .LVU75
  59:Src/tim.c     ****   {
 284              		.loc 1 59 7 is_stmt 0 view .LVU76
 285 004e 1F48     		ldr	r0, .L32
 286 0050 FFF7FEFF 		bl	HAL_TIM_PWM_Init
 287              	.LVL9:
  59:Src/tim.c     ****   {
 288              		.loc 1 59 6 view .LVU77
 289 0054 58BB     		cbnz	r0, .L27
 290              	.L19:
  63:Src/tim.c     ****   sMasterConfig.MasterSlaveMode = TIM_MASTERSLAVEMODE_DISABLE;
 291              		.loc 1 63 3 is_stmt 1 view .LVU78
  63:Src/tim.c     ****   sMasterConfig.MasterSlaveMode = TIM_MASTERSLAVEMODE_DISABLE;
 292              		.loc 1 63 37 is_stmt 0 view .LVU79
 293 0056 0023     		movs	r3, #0
 294 0058 0893     		str	r3, [sp, #32]
  64:Src/tim.c     ****   if (HAL_TIMEx_MasterConfigSynchronization(&htim3, &sMasterConfig) != HAL_OK)
 295              		.loc 1 64 3 is_stmt 1 view .LVU80
  64:Src/tim.c     ****   if (HAL_TIMEx_MasterConfigSynchronization(&htim3, &sMasterConfig) != HAL_OK)
 296              		.loc 1 64 33 is_stmt 0 view .LVU81
 297 005a 0993     		str	r3, [sp, #36]
  65:Src/tim.c     ****   {
 298              		.loc 1 65 3 is_stmt 1 view .LVU82
  65:Src/tim.c     ****   {
 299              		.loc 1 65 7 is_stmt 0 view .LVU83
 300 005c 08A9     		add	r1, sp, #32
 301 005e 1B48     		ldr	r0, .L32
 302 0060 FFF7FEFF 		bl	HAL_TIMEx_MasterConfigSynchronization
 303              	.LVL10:
  65:Src/tim.c     ****   {
 304              		.loc 1 65 6 view .LVU84
 305 0064 30BB     		cbnz	r0, .L28
 306              	.L20:
  69:Src/tim.c     ****   sConfigOC.Pulse = 0;
 307              		.loc 1 69 3 is_stmt 1 view .LVU85
  69:Src/tim.c     ****   sConfigOC.Pulse = 0;
 308              		.loc 1 69 20 is_stmt 0 view .LVU86
 309 0066 6023     		movs	r3, #96
 310 0068 0193     		str	r3, [sp, #4]
  70:Src/tim.c     ****   sConfigOC.OCPolarity = TIM_OCPOLARITY_HIGH;
 311              		.loc 1 70 3 is_stmt 1 view .LVU87
ARM GAS  C:\Users\Zbigniew\AppData\Local\Temp\ccQen79L.s 			page 10


  70:Src/tim.c     ****   sConfigOC.OCPolarity = TIM_OCPOLARITY_HIGH;
 312              		.loc 1 70 19 is_stmt 0 view .LVU88
 313 006a 0022     		movs	r2, #0
 314 006c 0292     		str	r2, [sp, #8]
  71:Src/tim.c     ****   sConfigOC.OCFastMode = TIM_OCFAST_DISABLE;
 315              		.loc 1 71 3 is_stmt 1 view .LVU89
  71:Src/tim.c     ****   sConfigOC.OCFastMode = TIM_OCFAST_DISABLE;
 316              		.loc 1 71 24 is_stmt 0 view .LVU90
 317 006e 0392     		str	r2, [sp, #12]
  72:Src/tim.c     ****   if (HAL_TIM_PWM_ConfigChannel(&htim3, &sConfigOC, TIM_CHANNEL_1) != HAL_OK)
 318              		.loc 1 72 3 is_stmt 1 view .LVU91
  72:Src/tim.c     ****   if (HAL_TIM_PWM_ConfigChannel(&htim3, &sConfigOC, TIM_CHANNEL_1) != HAL_OK)
 319              		.loc 1 72 24 is_stmt 0 view .LVU92
 320 0070 0592     		str	r2, [sp, #20]
  73:Src/tim.c     ****   {
 321              		.loc 1 73 3 is_stmt 1 view .LVU93
  73:Src/tim.c     ****   {
 322              		.loc 1 73 7 is_stmt 0 view .LVU94
 323 0072 01A9     		add	r1, sp, #4
 324 0074 1548     		ldr	r0, .L32
 325 0076 FFF7FEFF 		bl	HAL_TIM_PWM_ConfigChannel
 326              	.LVL11:
  73:Src/tim.c     ****   {
 327              		.loc 1 73 6 view .LVU95
 328 007a F0B9     		cbnz	r0, .L29
 329              	.L21:
  77:Src/tim.c     ****   {
 330              		.loc 1 77 3 is_stmt 1 view .LVU96
  77:Src/tim.c     ****   {
 331              		.loc 1 77 7 is_stmt 0 view .LVU97
 332 007c 0422     		movs	r2, #4
 333 007e 0DEB0201 		add	r1, sp, r2
 334 0082 1248     		ldr	r0, .L32
 335 0084 FFF7FEFF 		bl	HAL_TIM_PWM_ConfigChannel
 336              	.LVL12:
  77:Src/tim.c     ****   {
 337              		.loc 1 77 6 view .LVU98
 338 0088 D0B9     		cbnz	r0, .L30
 339              	.L22:
  81:Src/tim.c     ****   {
 340              		.loc 1 81 3 is_stmt 1 view .LVU99
  81:Src/tim.c     ****   {
 341              		.loc 1 81 7 is_stmt 0 view .LVU100
 342 008a 0822     		movs	r2, #8
 343 008c 01A9     		add	r1, sp, #4
 344 008e 0F48     		ldr	r0, .L32
 345 0090 FFF7FEFF 		bl	HAL_TIM_PWM_ConfigChannel
 346              	.LVL13:
  81:Src/tim.c     ****   {
 347              		.loc 1 81 6 view .LVU101
 348 0094 B8B9     		cbnz	r0, .L31
 349              	.L23:
  88:Src/tim.c     **** 
 350              		.loc 1 88 3 is_stmt 1 view .LVU102
 351 0096 0D48     		ldr	r0, .L32
 352 0098 FFF7FEFF 		bl	HAL_TIM_MspPostInit
 353              	.LVL14:
ARM GAS  C:\Users\Zbigniew\AppData\Local\Temp\ccQen79L.s 			page 11


  90:Src/tim.c     **** 
 354              		.loc 1 90 1 is_stmt 0 view .LVU103
 355 009c 0FB0     		add	sp, sp, #60
 356              	.LCFI8:
 357              		.cfi_remember_state
 358              		.cfi_def_cfa_offset 4
 359              		@ sp needed
 360 009e 5DF804FB 		ldr	pc, [sp], #4
 361              	.L25:
 362              	.LCFI9:
 363              		.cfi_restore_state
  52:Src/tim.c     ****   }
 364              		.loc 1 52 5 is_stmt 1 view .LVU104
 365 00a2 FFF7FEFF 		bl	Error_Handler
 366              	.LVL15:
 367 00a6 CAE7     		b	.L17
 368              	.L26:
  57:Src/tim.c     ****   }
 369              		.loc 1 57 5 view .LVU105
 370 00a8 FFF7FEFF 		bl	Error_Handler
 371              	.LVL16:
 372 00ac CFE7     		b	.L18
 373              	.L27:
  61:Src/tim.c     ****   }
 374              		.loc 1 61 5 view .LVU106
 375 00ae FFF7FEFF 		bl	Error_Handler
 376              	.LVL17:
 377 00b2 D0E7     		b	.L19
 378              	.L28:
  67:Src/tim.c     ****   }
 379              		.loc 1 67 5 view .LVU107
 380 00b4 FFF7FEFF 		bl	Error_Handler
 381              	.LVL18:
 382 00b8 D5E7     		b	.L20
 383              	.L29:
  75:Src/tim.c     ****   }
 384              		.loc 1 75 5 view .LVU108
 385 00ba FFF7FEFF 		bl	Error_Handler
 386              	.LVL19:
 387 00be DDE7     		b	.L21
 388              	.L30:
  79:Src/tim.c     ****   }
 389              		.loc 1 79 5 view .LVU109
 390 00c0 FFF7FEFF 		bl	Error_Handler
 391              	.LVL20:
 392 00c4 E1E7     		b	.L22
 393              	.L31:
  83:Src/tim.c     ****   }
 394              		.loc 1 83 5 view .LVU110
 395 00c6 FFF7FEFF 		bl	Error_Handler
 396              	.LVL21:
 397 00ca E4E7     		b	.L23
 398              	.L33:
 399              		.align	2
 400              	.L32:
 401 00cc 00000000 		.word	.LANCHOR0
 402 00d0 00040040 		.word	1073742848
ARM GAS  C:\Users\Zbigniew\AppData\Local\Temp\ccQen79L.s 			page 12


 403              		.cfi_endproc
 404              	.LFE65:
 406              		.section	.text.HAL_TIM_Base_MspDeInit,"ax",%progbits
 407              		.align	1
 408              		.global	HAL_TIM_Base_MspDeInit
 409              		.syntax unified
 410              		.thumb
 411              		.thumb_func
 413              	HAL_TIM_Base_MspDeInit:
 414              	.LVL22:
 415              	.LFB68:
 140:Src/tim.c     **** 
 141:Src/tim.c     **** void HAL_TIM_Base_MspDeInit(TIM_HandleTypeDef* tim_baseHandle)
 142:Src/tim.c     **** {
 416              		.loc 1 142 1 view -0
 417              		.cfi_startproc
 418              		@ args = 0, pretend = 0, frame = 0
 419              		@ frame_needed = 0, uses_anonymous_args = 0
 420              		@ link register save eliminated.
 143:Src/tim.c     **** 
 144:Src/tim.c     ****   if(tim_baseHandle->Instance==TIM3)
 421              		.loc 1 144 3 view .LVU112
 422              		.loc 1 144 20 is_stmt 0 view .LVU113
 423 0000 0268     		ldr	r2, [r0]
 424              		.loc 1 144 5 view .LVU114
 425 0002 054B     		ldr	r3, .L37
 426 0004 9A42     		cmp	r2, r3
 427 0006 00D0     		beq	.L36
 428              	.L34:
 145:Src/tim.c     ****   {
 146:Src/tim.c     ****   /* USER CODE BEGIN TIM3_MspDeInit 0 */
 147:Src/tim.c     **** 
 148:Src/tim.c     ****   /* USER CODE END TIM3_MspDeInit 0 */
 149:Src/tim.c     ****     /* Peripheral clock disable */
 150:Src/tim.c     ****     __HAL_RCC_TIM3_CLK_DISABLE();
 151:Src/tim.c     ****   /* USER CODE BEGIN TIM3_MspDeInit 1 */
 152:Src/tim.c     **** 
 153:Src/tim.c     ****   /* USER CODE END TIM3_MspDeInit 1 */
 154:Src/tim.c     ****   }
 155:Src/tim.c     **** }
 429              		.loc 1 155 1 view .LVU115
 430 0008 7047     		bx	lr
 431              	.L36:
 150:Src/tim.c     ****   /* USER CODE BEGIN TIM3_MspDeInit 1 */
 432              		.loc 1 150 5 is_stmt 1 view .LVU116
 433 000a 044A     		ldr	r2, .L37+4
 434 000c D369     		ldr	r3, [r2, #28]
 435 000e 23F00203 		bic	r3, r3, #2
 436 0012 D361     		str	r3, [r2, #28]
 437              		.loc 1 155 1 is_stmt 0 view .LVU117
 438 0014 F8E7     		b	.L34
 439              	.L38:
 440 0016 00BF     		.align	2
 441              	.L37:
 442 0018 00040040 		.word	1073742848
 443 001c 00100240 		.word	1073876992
 444              		.cfi_endproc
ARM GAS  C:\Users\Zbigniew\AppData\Local\Temp\ccQen79L.s 			page 13


 445              	.LFE68:
 447              		.section	.text.set_backlight,"ax",%progbits
 448              		.align	1
 449              		.global	set_backlight
 450              		.syntax unified
 451              		.thumb
 452              		.thumb_func
 454              	set_backlight:
 455              	.LVL23:
 456              	.LFB69:
 156:Src/tim.c     **** 
 157:Src/tim.c     **** /* USER CODE BEGIN 1 */
 158:Src/tim.c     **** 
 159:Src/tim.c     **** void set_backlight(int bl)
 160:Src/tim.c     **** {
 457              		.loc 1 160 1 is_stmt 1 view -0
 458              		.cfi_startproc
 459              		@ args = 0, pretend = 0, frame = 0
 460              		@ frame_needed = 0, uses_anonymous_args = 0
 461              		@ link register save eliminated.
 161:Src/tim.c     **** 	  TIM3->CCR1 = bl;
 462              		.loc 1 161 4 view .LVU119
 463              		.loc 1 161 15 is_stmt 0 view .LVU120
 464 0000 024B     		ldr	r3, .L40
 465 0002 5863     		str	r0, [r3, #52]
 162:Src/tim.c     **** 	  TIM3->CCR2 = bl;
 466              		.loc 1 162 4 is_stmt 1 view .LVU121
 467              		.loc 1 162 15 is_stmt 0 view .LVU122
 468 0004 9863     		str	r0, [r3, #56]
 163:Src/tim.c     **** 	  TIM3->CCR3 = bl;
 469              		.loc 1 163 4 is_stmt 1 view .LVU123
 470              		.loc 1 163 15 is_stmt 0 view .LVU124
 471 0006 D863     		str	r0, [r3, #60]
 164:Src/tim.c     **** }
 472              		.loc 1 164 1 view .LVU125
 473 0008 7047     		bx	lr
 474              	.L41:
 475 000a 00BF     		.align	2
 476              	.L40:
 477 000c 00040040 		.word	1073742848
 478              		.cfi_endproc
 479              	.LFE69:
 481              		.section	.text.pwm_init,"ax",%progbits
 482              		.align	1
 483              		.global	pwm_init
 484              		.syntax unified
 485              		.thumb
 486              		.thumb_func
 488              	pwm_init:
 489              	.LFB70:
 165:Src/tim.c     **** 
 166:Src/tim.c     **** void pwm_init()
 167:Src/tim.c     **** {
 490              		.loc 1 167 1 is_stmt 1 view -0
 491              		.cfi_startproc
 492              		@ args = 0, pretend = 0, frame = 0
 493              		@ frame_needed = 0, uses_anonymous_args = 0
ARM GAS  C:\Users\Zbigniew\AppData\Local\Temp\ccQen79L.s 			page 14


 494 0000 10B5     		push	{r4, lr}
 495              	.LCFI10:
 496              		.cfi_def_cfa_offset 8
 497              		.cfi_offset 4, -8
 498              		.cfi_offset 14, -4
 168:Src/tim.c     **** 	  HAL_TIM_PWM_Start(&htim3, TIM_CHANNEL_1); // Uruchamia generowanie PWM przez timer 4 na kanale 1
 499              		.loc 1 168 4 view .LVU127
 500 0002 074C     		ldr	r4, .L44
 501 0004 0021     		movs	r1, #0
 502 0006 2046     		mov	r0, r4
 503 0008 FFF7FEFF 		bl	HAL_TIM_PWM_Start
 504              	.LVL24:
 169:Src/tim.c     **** 	  HAL_TIM_PWM_Start(&htim3, TIM_CHANNEL_2); // Uruchamia generowanie PWM przez timer 4 na kanale 2
 505              		.loc 1 169 4 view .LVU128
 506 000c 0421     		movs	r1, #4
 507 000e 2046     		mov	r0, r4
 508 0010 FFF7FEFF 		bl	HAL_TIM_PWM_Start
 509              	.LVL25:
 170:Src/tim.c     **** 	  HAL_TIM_PWM_Start(&htim3, TIM_CHANNEL_3); // Uruchamia generowanie PWM przez timer 4 na kanale 3
 510              		.loc 1 170 4 view .LVU129
 511 0014 0821     		movs	r1, #8
 512 0016 2046     		mov	r0, r4
 513 0018 FFF7FEFF 		bl	HAL_TIM_PWM_Start
 514              	.LVL26:
 171:Src/tim.c     **** }
 515              		.loc 1 171 1 is_stmt 0 view .LVU130
 516 001c 10BD     		pop	{r4, pc}
 517              	.L45:
 518 001e 00BF     		.align	2
 519              	.L44:
 520 0020 00000000 		.word	.LANCHOR0
 521              		.cfi_endproc
 522              	.LFE70:
 524              		.global	htim3
 525              		.section	.bss.htim3,"aw",%nobits
 526              		.align	2
 527              		.set	.LANCHOR0,. + 0
 530              	htim3:
 531 0000 00000000 		.space	72
 531      00000000 
 531      00000000 
 531      00000000 
 531      00000000 
 532              		.text
 533              	.Letext0:
 534              		.file 2 "c:\\users\\zbigniew\\appdata\\roaming\\code\\user\\globalstorage\\bmd.stm32-for-vscode\\@
 535              		.file 3 "c:\\users\\zbigniew\\appdata\\roaming\\code\\user\\globalstorage\\bmd.stm32-for-vscode\\@
 536              		.file 4 "Drivers/CMSIS/Device/ST/STM32F1xx/Include/stm32f103xe.h"
 537              		.file 5 "Drivers/STM32F1xx_HAL_Driver/Inc/stm32f1xx_hal_def.h"
 538              		.file 6 "Drivers/STM32F1xx_HAL_Driver/Inc/stm32f1xx_hal_gpio.h"
 539              		.file 7 "Drivers/STM32F1xx_HAL_Driver/Inc/stm32f1xx_hal_dma.h"
 540              		.file 8 "Drivers/STM32F1xx_HAL_Driver/Inc/stm32f1xx_hal_tim.h"
 541              		.file 9 "Drivers/STM32F1xx_HAL_Driver/Inc/stm32f1xx_hal_tim_ex.h"
 542              		.file 10 "Inc/main.h"
 543              		.file 11 "Inc/tim.h"
ARM GAS  C:\Users\Zbigniew\AppData\Local\Temp\ccQen79L.s 			page 15

